                              1 ;--------------------------------------------------------
                              2 ; File Created by SDCC : free open source ANSI-C Compiler
                              3 ; Version 3.0.0 #6037 (Oct 31 2010) (MINGW32)
                              4 ; This file was generated Fri Apr 28 19:49:48 2023
                              5 ;--------------------------------------------------------
                              6 	.module main
                              7 	.optsdcc -mz80
                              8 	
                              9 ;--------------------------------------------------------
                             10 ; Public variables in this module
                             11 ;--------------------------------------------------------
                             12 	.globl _nmi
                             13 	.globl _main
                             14 	.globl _comptePills
                             15 	.globl _eraseScreen
                             16 	.globl _playIntro
                             17 	.globl _resetSprites
                             18 	.globl _menu
                             19 	.globl _gameLoop
                             20 	.globl _initLevel
                             21 	.globl _openDoors
                             22 	.globl _createDoor
                             23 	.globl _renderDoors
                             24 	.globl _renderCop
                             25 	.globl _moveCop3
                             26 	.globl _moveCop2
                             27 	.globl _moveCop1
                             28 	.globl _moveCop0
                             29 	.globl _initCop
                             30 	.globl _reInitPlayer
                             31 	.globl _initPlayer
                             32 	.globl _renderSprite
                             33 	.globl _checkPlayerGameCollisions
                             34 	.globl _renderPlayerDeath
                             35 	.globl _animatePlayer
                             36 	.globl _movePlayer
                             37 	.globl _changePlayerDirection
                             38 	.globl _isCopDirectionFree
                             39 	.globl _isPlayerDirectionFree
                             40 	.globl _renderAutoDoor
                             41 	.globl _initAutoDoor
                             42 	.globl _peekGhostGameZone
                             43 	.globl _isCollision
                             44 	.globl _renderPlayerLevel
                             45 	.globl _renderPlayerNbLives
                             46 	.globl _renderPlayerHiScore
                             47 	.globl _renderPlayerScore
                             48 	.globl _renderBonus
                             49 	.globl _createBonus
                             50 	.globl _desactivateBonus
                             51 	.globl _initBonus
                             52 	.globl _addScore
                             53 	.globl _changeFontColor
                             54 	.globl _startsfx
                             55 	.globl _startsfxPrio
                             56 	.globl _startmusic
                             57 	.globl _stopmusic
                             58 	.globl _sound_nmi
                             59 	.globl _modulo
                             60 	.globl _nSfxDelay
                             61 	.globl _pSfxList
                             62 	.globl _nPlayDelay
                             63 	.globl _pPlayListForLoop
                             64 	.globl _pPlayList
                             65 	.globl _vola
                             66 	.globl _sfxEnCours
                             67 	.globl _loopMusic
                             68 	.globl _G_KILLTick
                             69 	.globl _G_ATATTickShoot
                             70 	.globl _G_ATATTick
                             71 	.globl _G_count
                             72 	.globl _G_LastTick
                             73 	.globl _G_TickCount
                             74 	.globl _nextLifeBonus
                             75 	.globl _activateNmi
                             76 	.globl _timerDirectionDemandee
                             77 	.globl _directionDemandee
                             78 	.globl _levelParamShowPlayerDoors
                             79 	.globl _levelParamNbLives
                             80 	.globl _levelParamCop3FreezeStart
                             81 	.globl _levelParamCop2FreezeStart
                             82 	.globl _levelParamCop1FreezeStart
                             83 	.globl _levelParamCop0FreezeStart
                             84 	.globl _levelParamShowAutoDoors
                             85 	.globl _levelParamBonusShowTime
                             86 	.globl _levelParamCopFreezeBonus
                             87 	.globl _levelParamScatterModeTime
                             88 	.globl _levelParamCop3Speed
                             89 	.globl _levelParamCop2Speed
                             90 	.globl _levelParamCop1Speed
                             91 	.globl _levelParamCop0Speed
                             92 	.globl _odd
                             93 	.globl _bsprites
                             94 	.globl _currentFlicker
                             95 	.globl _workflow
                             96 	.globl _currentAbsoluteLevel
                             97 	.globl _currentLevel
                             98 	.globl _bigTimer
                             99 	.globl _autoDoorCurrentMove
                            100 	.globl _autoDoorCurrentFrame
                            101 	.globl _autoDoorTimer
                            102 	.globl _scatterModeTimer
                            103 	.globl _animateSprite
                            104 	.globl _currentBonus
                            105 	.globl _extend
                            106 	.globl _bonus
                            107 	.globl _autoDoorCurrentGfx
                            108 	.globl _autoDoors
                            109 	.globl _playerDoors
                            110 	.globl _cop
                            111 	.globl _player
                            112 	.globl _hiscore
                            113 	.globl _snd_table
                            114 	.globl _frm
                            115 ;--------------------------------------------------------
                            116 ; special function registers
                            117 ;--------------------------------------------------------
                            118 ;--------------------------------------------------------
                            119 ;  ram data
                            120 ;--------------------------------------------------------
                            121 	.area _DATA
   0000                     122 _hiscore::
   0000                     123 	.ds 2
   0002                     124 _player::
   0002                     125 	.ds 32
   0022                     126 _cop::
   0022                     127 	.ds 52
   0056                     128 _playerDoors::
   0056                     129 	.ds 26
   0070                     130 _autoDoors::
   0070                     131 	.ds 16
   0080                     132 _autoDoorCurrentGfx::
   0080                     133 	.ds 1
   0081                     134 _bonus::
   0081                     135 	.ds 9
   008A                     136 _extend::
   008A                     137 	.ds 1
   008B                     138 _currentBonus::
   008B                     139 	.ds 1
   008C                     140 _animateSprite::
   008C                     141 	.ds 1
   008D                     142 _scatterModeTimer::
   008D                     143 	.ds 2
   008F                     144 _autoDoorTimer::
   008F                     145 	.ds 2
   0091                     146 _autoDoorCurrentFrame::
   0091                     147 	.ds 2
   0093                     148 _autoDoorCurrentMove::
   0093                     149 	.ds 2
   0095                     150 _bigTimer::
   0095                     151 	.ds 2
   0097                     152 _currentLevel::
   0097                     153 	.ds 1
   0098                     154 _currentAbsoluteLevel::
   0098                     155 	.ds 1
   0099                     156 _workflow::
   0099                     157 	.ds 1
   009A                     158 _currentFlicker::
   009A                     159 	.ds 1
   009B                     160 _bsprites::
   009B                     161 	.ds 128
   011B                     162 _odd::
   011B                     163 	.ds 1
   011C                     164 _levelParamCop0Speed::
   011C                     165 	.ds 1
   011D                     166 _levelParamCop1Speed::
   011D                     167 	.ds 1
   011E                     168 _levelParamCop2Speed::
   011E                     169 	.ds 1
   011F                     170 _levelParamCop3Speed::
   011F                     171 	.ds 1
   0120                     172 _levelParamScatterModeTime::
   0120                     173 	.ds 2
   0122                     174 _levelParamCopFreezeBonus::
   0122                     175 	.ds 2
   0124                     176 _levelParamBonusShowTime::
   0124                     177 	.ds 2
   0126                     178 _levelParamShowAutoDoors::
   0126                     179 	.ds 1
   0127                     180 _levelParamCop0FreezeStart::
   0127                     181 	.ds 2
   0129                     182 _levelParamCop1FreezeStart::
   0129                     183 	.ds 2
   012B                     184 _levelParamCop2FreezeStart::
   012B                     185 	.ds 2
   012D                     186 _levelParamCop3FreezeStart::
   012D                     187 	.ds 2
   012F                     188 _levelParamNbLives::
   012F                     189 	.ds 2
   0131                     190 _levelParamShowPlayerDoors::
   0131                     191 	.ds 2
   0133                     192 _directionDemandee::
   0133                     193 	.ds 1
   0134                     194 _timerDirectionDemandee::
   0134                     195 	.ds 1
   0135                     196 _activateNmi::
   0135                     197 	.ds 1
   0136                     198 _nextLifeBonus::
   0136                     199 	.ds 2
   0138                     200 _G_TickCount::
   0138                     201 	.ds 2
   013A                     202 _G_LastTick::
   013A                     203 	.ds 2
   013C                     204 _G_count::
   013C                     205 	.ds 2
   013E                     206 _G_ATATTick::
   013E                     207 	.ds 2
   0140                     208 _G_ATATTickShoot::
   0140                     209 	.ds 2
   0142                     210 _G_KILLTick::
   0142                     211 	.ds 2
   0144                     212 _loopMusic::
   0144                     213 	.ds 1
   0145                     214 _sfxEnCours::
   0145                     215 	.ds 1
   0146                     216 _vola::
   0146                     217 	.ds 1
   0147                     218 _pPlayList::
   0147                     219 	.ds 2
   0149                     220 _pPlayListForLoop::
   0149                     221 	.ds 2
   014B                     222 _nPlayDelay::
   014B                     223 	.ds 1
   014C                     224 _pSfxList::
   014C                     225 	.ds 2
   014E                     226 _nSfxDelay::
   014E                     227 	.ds 1
                            228 ;--------------------------------------------------------
                            229 ; overlayable items in  ram 
                            230 ;--------------------------------------------------------
                            231 	.area _OVERLAY
                            232 ;--------------------------------------------------------
                            233 ; external initialized ram data
                            234 ;--------------------------------------------------------
                            235 ;--------------------------------------------------------
                            236 ; global & static initialisations
                            237 ;--------------------------------------------------------
                            238 	.area _HOME
                            239 	.area _GSINIT
                            240 	.area _GSFINAL
                            241 	.area _GSINIT
                            242 ;main.c:295: unsigned int G_TickCount = 0;
   0000 FD 21r38s01         243 	ld	iy,#_G_TickCount
   0004 FD 36 00 00         244 	ld	0 (iy),#0x00
   0008 FD 36 01 00         245 	ld	1 (iy),#0x00
                            246 ;main.c:296: unsigned int G_LastTick = 0;
   000C FD 21r3As01         247 	ld	iy,#_G_LastTick
   0010 FD 36 00 00         248 	ld	0 (iy),#0x00
   0014 FD 36 01 00         249 	ld	1 (iy),#0x00
                            250 ;main.c:297: unsigned int G_count = 0;
   0018 FD 21r3Cs01         251 	ld	iy,#_G_count
   001C FD 36 00 00         252 	ld	0 (iy),#0x00
   0020 FD 36 01 00         253 	ld	1 (iy),#0x00
                            254 ;main.c:298: unsigned int G_ATATTick = 0;
   0024 FD 21r3Es01         255 	ld	iy,#_G_ATATTick
   0028 FD 36 00 00         256 	ld	0 (iy),#0x00
   002C FD 36 01 00         257 	ld	1 (iy),#0x00
                            258 ;main.c:299: unsigned int G_ATATTickShoot = 0;
   0030 FD 21r40s01         259 	ld	iy,#_G_ATATTickShoot
   0034 FD 36 00 00         260 	ld	0 (iy),#0x00
   0038 FD 36 01 00         261 	ld	1 (iy),#0x00
                            262 ;main.c:300: unsigned int G_KILLTick = 0;
   003C FD 21r42s01         263 	ld	iy,#_G_KILLTick
   0040 FD 36 00 00         264 	ld	0 (iy),#0x00
   0044 FD 36 01 00         265 	ld	1 (iy),#0x00
                            266 ;main.c:303: volatile char vola=0;
   0048 FD 21r46s01         267 	ld	iy,#_vola
   004C FD 36 00 00         268 	ld	0 (iy),#0x00
                            269 ;main.c:304: volatile unsigned char *pPlayList=NULL;		// audio playlist
   0050 FD 21r47s01         270 	ld	iy,#_pPlayList
   0054 FD 36 00 00         271 	ld	0 (iy),#0x00
   0058 FD 36 01 00         272 	ld	1 (iy),#0x00
                            273 ;main.c:305: volatile unsigned char *pPlayListForLoop=NULL;		// audio playlist
   005C FD 21r49s01         274 	ld	iy,#_pPlayListForLoop
   0060 FD 36 00 00         275 	ld	0 (iy),#0x00
   0064 FD 36 01 00         276 	ld	1 (iy),#0x00
                            277 ;main.c:306: unsigned char nPlayDelay=1;
   0068 FD 21r4Bs01         278 	ld	iy,#_nPlayDelay
   006C FD 36 00 01         279 	ld	0 (iy),#0x01
                            280 ;main.c:307: volatile unsigned char *pSfxList=NULL;		// sfx audio playlist
   0070 FD 21r4Cs01         281 	ld	iy,#_pSfxList
   0074 FD 36 00 00         282 	ld	0 (iy),#0x00
   0078 FD 36 01 00         283 	ld	1 (iy),#0x00
                            284 ;main.c:308: unsigned char nSfxDelay=1;
   007C FD 21r4Es01         285 	ld	iy,#_nSfxDelay
   0080 FD 36 00 01         286 	ld	0 (iy),#0x01
                            287 ;--------------------------------------------------------
                            288 ; Home
                            289 ;--------------------------------------------------------
                            290 	.area _HOME
                            291 	.area _HOME
                            292 ;--------------------------------------------------------
                            293 ; code
                            294 ;--------------------------------------------------------
                            295 	.area _CODE
                            296 ;main.c:311: int modulo(int a,int b)
                            297 ;	---------------------------------
                            298 ; Function modulo
                            299 ; ---------------------------------
   0000                     300 _modulo_start::
   0000                     301 _modulo:
   0000 DD E5               302 	push	ix
   0002 DD 21 00 00         303 	ld	ix,#0
   0006 DD 39               304 	add	ix,sp
                            305 ;main.c:313: return a%b;
   0008 DD 6E 06            306 	ld	l,6 (ix)
   000B DD 66 07            307 	ld	h,7 (ix)
   000E E5                  308 	push	hl
   000F DD 6E 04            309 	ld	l,4 (ix)
   0012 DD 66 05            310 	ld	h,5 (ix)
   0015 E5                  311 	push	hl
   0016 CDr00s00            312 	call	__modsint_rrx_s
   0019 F1                  313 	pop	af
   001A F1                  314 	pop	af
   001B DD E1               315 	pop	ix
   001D C9                  316 	ret
   001E                     317 _modulo_end::
   001E                     318 _BONUS:
   001E 30                  319 	.db #0x30	; 48
   001F 34                  320 	.db #0x34	; 52
   0020 38                  321 	.db #0x38	; 56
   0021 30                  322 	.db #0x30	; 48
   0022 34                  323 	.db #0x34	; 52
   0023 38                  324 	.db #0x38	; 56
   0024 30                  325 	.db #0x30	; 48
   0025 34                  326 	.db #0x34	; 52
   0026 38                  327 	.db #0x38	; 56
   0027 30                  328 	.db #0x30	; 48
   0028 34                  329 	.db #0x34	; 52
   0029 3C                  330 	.db #0x3C	; 60
   002A 30                  331 	.db #0x30	; 48
   002B 34                  332 	.db #0x34	; 52
   002C 3C                  333 	.db #0x3C	; 60
   002D 30                  334 	.db #0x30	; 48
   002E 34                  335 	.db #0x34	; 52
   002F 3C                  336 	.db #0x3C	; 60
   0030 30                  337 	.db #0x30	; 48
   0031 34                  338 	.db #0x34	; 52
   0032 40                  339 	.db #0x40	; 64
   0033 30                  340 	.db #0x30	; 48
   0034 34                  341 	.db #0x34	; 52
   0035 40                  342 	.db #0x40	; 64
   0036 30                  343 	.db #0x30	; 48
   0037 34                  344 	.db #0x34	; 52
   0038 40                  345 	.db #0x40	; 64
   0039 30                  346 	.db #0x30	; 48
   003A 34                  347 	.db #0x34	; 52
   003B 44                  348 	.db #0x44	; 68	D
   003C 30                  349 	.db #0x30	; 48
   003D 34                  350 	.db #0x34	; 52
   003E 44                  351 	.db #0x44	; 68	D
   003F 30                  352 	.db #0x30	; 48
   0040 34                  353 	.db #0x34	; 52
   0041 44                  354 	.db #0x44	; 68	D
   0042 30                  355 	.db #0x30	; 48
   0043 34                  356 	.db #0x34	; 52
   0044 48                  357 	.db #0x48	; 72	H
   0045 30                  358 	.db #0x30	; 48
   0046 34                  359 	.db #0x34	; 52
   0047 48                  360 	.db #0x48	; 72	H
   0048 30                  361 	.db #0x30	; 48
   0049 34                  362 	.db #0x34	; 52
   004A 48                  363 	.db #0x48	; 72	H
   004B 30                  364 	.db #0x30	; 48
   004C 34                  365 	.db #0x34	; 52
   004D 4C                  366 	.db #0x4C	; 76	L
   004E 30                  367 	.db #0x30	; 48
   004F 34                  368 	.db #0x34	; 52
   0050 4C                  369 	.db #0x4C	; 76	L
   0051 30                  370 	.db #0x30	; 48
   0052 34                  371 	.db #0x34	; 52
   0053 4C                  372 	.db #0x4C	; 76	L
   0054 30                  373 	.db #0x30	; 48
   0055 34                  374 	.db #0x34	; 52
   0056 50                  375 	.db #0x50	; 80	P
   0057 30                  376 	.db #0x30	; 48
   0058 34                  377 	.db #0x34	; 52
   0059 50                  378 	.db #0x50	; 80	P
   005A 30                  379 	.db #0x30	; 48
   005B 34                  380 	.db #0x34	; 52
   005C 50                  381 	.db #0x50	; 80	P
   005D 30                  382 	.db #0x30	; 48
   005E 34                  383 	.db #0x34	; 52
   005F 54                  384 	.db #0x54	; 84	T
   0060 30                  385 	.db #0x30	; 48
   0061 34                  386 	.db #0x34	; 52
   0062 54                  387 	.db #0x54	; 84	T
   0063 30                  388 	.db #0x30	; 48
   0064 34                  389 	.db #0x34	; 52
   0065 34                  390 	.db #0x34	; 52
   0066                     391 _horizontalSpace:
   0066 00                  392 	.db #0x00	; 0
   0067 00                  393 	.db #0x00	; 0
   0068                     394 _gfxAutoDoor:
   0068 80                  395 	.db #0x80	; 128
   0069 88                  396 	.db #0x88	; 136
   006A 81                  397 	.db #0x81	; 129
   006B 89                  398 	.db #0x89	; 137
   006C 82                  399 	.db #0x82	; 130
   006D 8A                  400 	.db #0x8A	; 138
   006E 83                  401 	.db #0x83	; 131
   006F 8B                  402 	.db #0x8B	; 139
   0070 84                  403 	.db #0x84	; 132
   0071 8C                  404 	.db #0x8C	; 140
   0072 85                  405 	.db #0x85	; 133
   0073 8D                  406 	.db #0x8D	; 141
   0074 86                  407 	.db #0x86	; 134
   0075 8E                  408 	.db #0x8E	; 142
   0076 87                  409 	.db #0x87	; 135
   0077 8F                  410 	.db #0x8F	; 143
   0078 87                  411 	.db #0x87	; 135
   0079 8F                  412 	.db #0x8F	; 143
   007A 87                  413 	.db #0x87	; 135
   007B 8F                  414 	.db #0x8F	; 143
   007C 86                  415 	.db #0x86	; 134
   007D 8E                  416 	.db #0x8E	; 142
   007E 85                  417 	.db #0x85	; 133
   007F 8D                  418 	.db #0x8D	; 141
   0080 84                  419 	.db #0x84	; 132
   0081 8C                  420 	.db #0x8C	; 140
   0082 83                  421 	.db #0x83	; 131
   0083 8B                  422 	.db #0x8B	; 139
   0084 82                  423 	.db #0x82	; 130
   0085 8A                  424 	.db #0x8A	; 138
   0086 81                  425 	.db #0x81	; 129
   0087 89                  426 	.db #0x89	; 137
   0088 80                  427 	.db #0x80	; 128
   0089 88                  428 	.db #0x88	; 136
   008A 00                  429 	.db #0x00	; 0
   008B 00                  430 	.db #0x00	; 0
   008C                     431 _grp1:
   008C 47 45 54 20 52 45   432 	.ascii "GET READY PLAYER 1"
        41 44 59 20 50 4C
        41 59 45 52 20 31
   009E 00                  433 	.db 0x00
   009F                     434 _frm:
   009F E0                  435 	.db #0xE0	; 224
   00A0 E7                  436 	.db #0xE7	; 231
   00A1 EB                  437 	.db #0xEB	; 235
   00A2 EF                  438 	.db #0xEF	; 239
   00A3 E1                  439 	.db #0xE1	; 225
   00A4 E8                  440 	.db #0xE8	; 232
   00A5 EC                  441 	.db #0xEC	; 236
   00A6 F0                  442 	.db #0xF0	; 240
   00A7 E2                  443 	.db #0xE2	; 226
   00A8 E9                  444 	.db #0xE9	; 233
   00A9 ED                  445 	.db #0xED	; 237
   00AA F1                  446 	.db #0xF1	; 241
   00AB E3                  447 	.db #0xE3	; 227
   00AC EA                  448 	.db #0xEA	; 234
   00AD EE                  449 	.db #0xEE	; 238
   00AE F2                  450 	.db #0xF2	; 242
   00AF E6                  451 	.db #0xE6	; 230
   00B0 E6                  452 	.db #0xE6	; 230
   00B1 E6                  453 	.db #0xE6	; 230
   00B2 E6                  454 	.db #0xE6	; 230
   00B3 E6                  455 	.db #0xE6	; 230
   00B4 E6                  456 	.db #0xE6	; 230
   00B5 E6                  457 	.db #0xE6	; 230
   00B6 E6                  458 	.db #0xE6	; 230
   00B7                     459 _snd_table:
   00B7 00                  460 	.db #0x00	; 0
                            461 ;main.c:316: void sound_nmi(void)
                            462 ;	---------------------------------
                            463 ; Function sound_nmi
                            464 ; ---------------------------------
   00B8                     465 _sound_nmi_start::
   00B8                     466 _sound_nmi:
                            467 ;main.c:335: if (NULL != pPlayList) {
   00B8 ED 4Br47s01         468 	ld	bc,(_pPlayList)
   00BC 79                  469 	ld	a,c
   00BD B0                  470 	or	a,b
   00BE CAr86s01            471 	jp	Z,00118$
                            472 ;main.c:336: nPlayDelay++;
   00C1 FD 21r4Bs01         473 	ld	iy,#_nPlayDelay
   00C5 FD 34 00            474 	inc	0 (iy)
                            475 ;main.c:337: if (nPlayDelay == *(pPlayList))
   00C8 2Ar47s01            476 	ld	hl,(_pPlayList)
   00CB FD 7E 00            477 	ld	a,0 (iy)
   00CE 96                  478 	sub	a,(hl)
   00CF C2r86s01            479 	jp	NZ,00118$
                            480 ;main.c:339: while (nPlayDelay==*(pPlayList))
   00D2                     481 00112$:
   00D2 2Ar47s01            482 	ld	hl,(_pPlayList)
   00D5 4E                  483 	ld	c,(hl)
   00D6 3Ar4Bs01            484 	ld	a,(#_nPlayDelay + 0)
   00D9 91                  485 	sub	a,c
   00DA C2r86s01            486 	jp	NZ,00118$
                            487 ;main.c:341: nDat=*(++pPlayList);
   00DD FD 21r47s01         488 	ld	iy,#_pPlayList
   00E1 FD 34 00            489 	inc	0 (iy)
   00E4 20 03               490 	jr	NZ,00156$
   00E6 FD 34 01            491 	inc	1 (iy)
   00E9                     492 00156$:
   00E9 2Ar47s01            493 	ld	hl,(_pPlayList)
   00EC 4E                  494 	ld	c, (hl)
                            495 ;main.c:342: if (0 == nDat) {
   00ED 79                  496 	ld	a,c
   00EE B7                  497 	or	a,a
   00EF 20 38               498 	jr	NZ,00105$
                            499 ;main.c:344: if (loopMusic==LOOP_OFF) pPlayList=NULL;
   00F1 AF                  500 	xor	a,a
   00F2 FD 21r44s01         501 	ld	iy,#_loopMusic
   00F6 FD B6 00            502 	or	a,0 (iy)
   00F9 20 0F               503 	jr	NZ,00102$
   00FB FD 21r47s01         504 	ld	iy,#_pPlayList
   00FF FD 36 00 00         505 	ld	0 (iy),#0x00
   0103 FD 36 01 00         506 	ld	1 (iy),#0x00
   0107 C3r86s01            507 	jp	00118$
   010A                     508 00102$:
                            509 ;main.c:345: else {pPlayList=pPlayListForLoop;nPlayDelay=(*pPlayListForLoop)-1;}
   010A 3Ar49s01            510 	ld	a,(#_pPlayListForLoop + 0)
   010D FD 21r47s01         511 	ld	iy,#_pPlayList
   0111 FD 77 00            512 	ld	0 (iy),a
   0114 3Ar4As01            513 	ld	a,(#_pPlayListForLoop + 1)
   0117 FD 21r47s01         514 	ld	iy,#_pPlayList
   011B FD 77 01            515 	ld	1 (iy),a
   011E 2Ar49s01            516 	ld	hl,(_pPlayListForLoop)
   0121 7E                  517 	ld	a, (hl)
   0122 21r4Bs01            518 	ld	hl, #_nPlayDelay
   0125 3D                  519 	dec	a
   0126 77                  520 	ld	(hl),a
                            521 ;main.c:346: break;
   0127 18 5D               522 	jr	00118$
   0129                     523 00105$:
                            524 ;main.c:348: switch (nDat&0x90) {
   0129 79                  525 	ld	a,c
   012A E6 90               526 	and	a,#0x90
   012C 6F                  527 	ld	l,a
   012D D6 80               528 	sub	a,#0x80
   012F 28 07               529 	jr	Z,00106$
   0131 7D                  530 	ld	a,l
   0132 D6 90               531 	sub	a,#0x90
   0134 28 2B               532 	jr	Z,00109$
   0136 18 32               533 	jr	00110$
                            534 ;main.c:349: case 0x80:		// load sample
   0138                     535 00106$:
                            536 ;main.c:352: direct_sound(nDat);
   0138 C5                  537 	push	bc
   0139 79                  538 	ld	a,c
   013A F5                  539 	push	af
   013B 33                  540 	inc	sp
   013C CDr00s00            541 	call	_direct_sound
   013F 33                  542 	inc	sp
   0140 C1                  543 	pop	bc
                            544 ;main.c:353: if ((nDat&0xe0) != 0xe0) direct_sound(*(++pPlayList));
   0141 79                  545 	ld	a,c
   0142 E6 E0               546 	and	a,#0xE0
   0144 6F                  547 	ld	l,a
   0145 D6 E0               548 	sub	a,#0xE0
   0147 28 2D               549 	jr	Z,00111$
   0149 FD 21r47s01         550 	ld	iy,#_pPlayList
   014D FD 34 00            551 	inc	0 (iy)
   0150 20 03               552 	jr	NZ,00162$
   0152 FD 34 01            553 	inc	1 (iy)
   0155                     554 00162$:
   0155 2Ar47s01            555 	ld	hl,(_pPlayList)
   0158 7E                  556 	ld	a, (hl)
   0159 F5                  557 	push	af
   015A 33                  558 	inc	sp
   015B CDr00s00            559 	call	_direct_sound
   015E 33                  560 	inc	sp
                            561 ;main.c:354: break;
   015F 18 15               562 	jr	00111$
                            563 ;main.c:355: case 0x90:		// load volume
   0161                     564 00109$:
                            565 ;main.c:357: direct_sound(nDat);
   0161 79                  566 	ld	a,c
   0162 F5                  567 	push	af
   0163 33                  568 	inc	sp
   0164 CDr00s00            569 	call	_direct_sound
   0167 33                  570 	inc	sp
                            571 ;main.c:358: break;
   0168 18 0C               572 	jr	00111$
                            573 ;main.c:359: default:		// don't know what this is, should abort
   016A                     574 00110$:
                            575 ;main.c:360: pPlayList=NULL;
   016A FD 21r47s01         576 	ld	iy,#_pPlayList
   016E FD 36 00 00         577 	ld	0 (iy),#0x00
   0172 FD 36 01 00         578 	ld	1 (iy),#0x00
                            579 ;main.c:362: }
   0176                     580 00111$:
                            581 ;main.c:364: pPlayList++;
   0176 FD 21r47s01         582 	ld	iy,#_pPlayList
   017A FD 34 00            583 	inc	0 (iy)
   017D C2rD2s00            584 	jp	NZ,00112$
   0180 FD 34 01            585 	inc	1 (iy)
   0183 C3rD2s00            586 	jp	00112$
   0186                     587 00118$:
                            588 ;main.c:369: if (NULL != pSfxList)
   0186 ED 5Br4Cs01         589 	ld	de,(_pSfxList)
   018A 7B                  590 	ld	a,e
   018B B2                  591 	or	a,d
   018C C8                  592 	ret	Z
                            593 ;main.c:371: nSfxDelay++;
   018D FD 21r4Es01         594 	ld	iy,#_nSfxDelay
   0191 FD 34 00            595 	inc	0 (iy)
                            596 ;main.c:372: if (nSfxDelay == *(pSfxList))
   0194 2Ar4Cs01            597 	ld	hl,(_pSfxList)
   0197 FD 7E 00            598 	ld	a,0 (iy)
   019A 96                  599 	sub	a,(hl)
   019B 28 01               600 	jr	Z,00166$
   019D C9                  601 	ret
   019E                     602 00166$:
                            603 ;main.c:374: while (nSfxDelay==*(pSfxList))
   019E                     604 00127$:
   019E 2Ar4Cs01            605 	ld	hl,(_pSfxList)
   01A1 46                  606 	ld	b,(hl)
   01A2 3Ar4Es01            607 	ld	a,(#_nSfxDelay + 0)
   01A5 90                  608 	sub	a,b
   01A6 28 01               609 	jr	Z,00168$
   01A8 C9                  610 	ret
   01A9                     611 00168$:
                            612 ;main.c:376: nDat=*(++pSfxList);
   01A9 FD 21r4Cs01         613 	ld	iy,#_pSfxList
   01AD FD 34 00            614 	inc	0 (iy)
   01B0 20 03               615 	jr	NZ,00169$
   01B2 FD 34 01            616 	inc	1 (iy)
   01B5                     617 00169$:
   01B5 2Ar4Cs01            618 	ld	hl,(_pSfxList)
   01B8 4E                  619 	ld	c, (hl)
                            620 ;main.c:377: if (0 == nDat) {
   01B9 79                  621 	ld	a,c
   01BA B7                  622 	or	a,a
   01BB 20 0E               623 	jr	NZ,00120$
                            624 ;main.c:378: pSfxList=NULL;
   01BD FD 36 00 00         625 	ld	0 (iy),#0x00
   01C1 FD 36 01 00         626 	ld	1 (iy),#0x00
                            627 ;main.c:379: sfxEnCours = NON;
   01C5 21r45s01            628 	ld	hl,#_sfxEnCours + 0
   01C8 36 00               629 	ld	(hl), #0x00
                            630 ;main.c:380: break;
   01CA C9                  631 	ret
   01CB                     632 00120$:
                            633 ;main.c:382: switch (nDat&0x90) {
   01CB 79                  634 	ld	a,c
   01CC E6 90               635 	and	a,#0x90
   01CE 6F                  636 	ld	l,a
   01CF D6 80               637 	sub	a,#0x80
   01D1 28 07               638 	jr	Z,00121$
   01D3 7D                  639 	ld	a,l
   01D4 D6 90               640 	sub	a,#0x90
   01D6 28 2A               641 	jr	Z,00124$
   01D8 18 31               642 	jr	00125$
                            643 ;main.c:383: case 0x80:		// load sample
   01DA                     644 00121$:
                            645 ;main.c:386: direct_sound(nDat);
   01DA C5                  646 	push	bc
   01DB 79                  647 	ld	a,c
   01DC F5                  648 	push	af
   01DD 33                  649 	inc	sp
   01DE CDr00s00            650 	call	_direct_sound
   01E1 33                  651 	inc	sp
   01E2 C1                  652 	pop	bc
                            653 ;main.c:387: if ((nDat&0xe0) != 0xe0) direct_sound(*(++pSfxList));
   01E3 79                  654 	ld	a,c
   01E4 E6 E0               655 	and	a,#0xE0
   01E6 D6 E0               656 	sub	a,#0xE0
   01E8 28 32               657 	jr	Z,00126$
   01EA FD 21r4Cs01         658 	ld	iy,#_pSfxList
   01EE FD 34 00            659 	inc	0 (iy)
   01F1 20 03               660 	jr	NZ,00175$
   01F3 FD 34 01            661 	inc	1 (iy)
   01F6                     662 00175$:
   01F6 2Ar4Cs01            663 	ld	hl,(_pSfxList)
   01F9 7E                  664 	ld	a, (hl)
   01FA F5                  665 	push	af
   01FB 33                  666 	inc	sp
   01FC CDr00s00            667 	call	_direct_sound
   01FF 33                  668 	inc	sp
                            669 ;main.c:388: break;
   0200 18 1A               670 	jr	00126$
                            671 ;main.c:389: case 0x90:		// load volume
   0202                     672 00124$:
                            673 ;main.c:390: direct_sound(nDat);
   0202 79                  674 	ld	a,c
   0203 F5                  675 	push	af
   0204 33                  676 	inc	sp
   0205 CDr00s00            677 	call	_direct_sound
   0208 33                  678 	inc	sp
                            679 ;main.c:391: break;
   0209 18 11               680 	jr	00126$
                            681 ;main.c:392: default:		// don't know what this is, should abort
   020B                     682 00125$:
                            683 ;main.c:393: pSfxList=NULL;
   020B FD 21r4Cs01         684 	ld	iy,#_pSfxList
   020F FD 36 00 00         685 	ld	0 (iy),#0x00
   0213 FD 36 01 00         686 	ld	1 (iy),#0x00
                            687 ;main.c:394: sfxEnCours=NON;
   0217 21r45s01            688 	ld	hl,#_sfxEnCours + 0
   021A 36 00               689 	ld	(hl), #0x00
                            690 ;main.c:396: }
   021C                     691 00126$:
                            692 ;main.c:398: /*if (pSfxList!=NULL)*/ pSfxList++;
   021C FD 21r4Cs01         693 	ld	iy,#_pSfxList
   0220 FD 34 00            694 	inc	0 (iy)
   0223 C2r9Es01            695 	jp	NZ,00127$
   0226 FD 34 01            696 	inc	1 (iy)
   0229 C3r9Es01            697 	jp	00127$
   022C                     698 _sound_nmi_end::
                            699 ;main.c:406: void stopmusic() {
                            700 ;	---------------------------------
                            701 ; Function stopmusic
                            702 ; ---------------------------------
   022C                     703 _stopmusic_start::
   022C                     704 _stopmusic:
                            705 ;main.c:407: pPlayList=NULL;
   022C FD 21r47s01         706 	ld	iy,#_pPlayList
   0230 FD 36 00 00         707 	ld	0 (iy),#0x00
   0234 FD 36 01 00         708 	ld	1 (iy),#0x00
                            709 ;main.c:408: pPlayListForLoop=NULL;
   0238 FD 21r49s01         710 	ld	iy,#_pPlayListForLoop
   023C FD 36 00 00         711 	ld	0 (iy),#0x00
   0240 FD 36 01 00         712 	ld	1 (iy),#0x00
                            713 ;main.c:409: pSfxList=NULL;
   0244 FD 21r4Cs01         714 	ld	iy,#_pSfxList
   0248 FD 36 00 00         715 	ld	0 (iy),#0x00
   024C FD 36 01 00         716 	ld	1 (iy),#0x00
                            717 ;main.c:410: direct_sound(0x9F);
   0250 3E 9F               718 	ld	a,#0x9F
   0252 F5                  719 	push	af
   0253 33                  720 	inc	sp
   0254 CDr00s00            721 	call	_direct_sound
   0257 33                  722 	inc	sp
                            723 ;main.c:411: direct_sound(0xAF);
   0258 3E AF               724 	ld	a,#0xAF
   025A F5                  725 	push	af
   025B 33                  726 	inc	sp
   025C CDr00s00            727 	call	_direct_sound
   025F 33                  728 	inc	sp
                            729 ;main.c:412: direct_sound(0xDF);
   0260 3E DF               730 	ld	a,#0xDF
   0262 F5                  731 	push	af
   0263 33                  732 	inc	sp
   0264 CDr00s00            733 	call	_direct_sound
   0267 33                  734 	inc	sp
                            735 ;main.c:413: direct_sound(0xFF);
   0268 3E FF               736 	ld	a,#0xFF
   026A F5                  737 	push	af
   026B 33                  738 	inc	sp
   026C CDr00s00            739 	call	_direct_sound
   026F 33                  740 	inc	sp
   0270 C9                  741 	ret
   0271                     742 _stopmusic_end::
                            743 ;main.c:416: void startmusic(unsigned char *pDat,byte loop) {
                            744 ;	---------------------------------
                            745 ; Function startmusic
                            746 ; ---------------------------------
   0271                     747 _startmusic_start::
   0271                     748 _startmusic:
   0271 DD E5               749 	push	ix
   0273 DD 21 00 00         750 	ld	ix,#0
   0277 DD 39               751 	add	ix,sp
                            752 ;main.c:418: loopMusic = loop;
   0279 DD 7E 06            753 	ld	a,6 (ix)
   027C FD 21r44s01         754 	ld	iy,#_loopMusic
   0280 FD 77 00            755 	ld	0 (iy),a
                            756 ;main.c:419: if (NULL != pPlayList) {
   0283 ED 4Br47s01         757 	ld	bc,(_pPlayList)
   0287 79                  758 	ld	a,c
   0288 B0                  759 	or	a,b
   0289 28 03               760 	jr	Z,00102$
                            761 ;main.c:420: stopmusic();
   028B CDr2Cs02            762 	call	_stopmusic
   028E                     763 00102$:
                            764 ;main.c:423: nPlayDelay=(*pDat)-1;
   028E DD 4E 04            765 	ld	c,4 (ix)
   0291 DD 46 05            766 	ld	b,5 (ix)
   0294 0A                  767 	ld	a,(bc)
   0295 21r4Bs01            768 	ld	hl, #_nPlayDelay
   0298 3D                  769 	dec	a
   0299 77                  770 	ld	(hl),a
                            771 ;main.c:424: pPlayList=pDat;
   029A FD 21r47s01         772 	ld	iy,#_pPlayList
   029E FD 71 00            773 	ld	0 (iy),c
   02A1 FD 70 01            774 	ld	1 (iy),b
                            775 ;main.c:425: pPlayListForLoop=pDat;
   02A4 FD 21r49s01         776 	ld	iy,#_pPlayListForLoop
   02A8 FD 71 00            777 	ld	0 (iy),c
   02AB FD 70 01            778 	ld	1 (iy),b
   02AE DD E1               779 	pop	ix
   02B0 C9                  780 	ret
   02B1                     781 _startmusic_end::
                            782 ;main.c:429: void startsfxPrio(unsigned char *pDat) {
                            783 ;	---------------------------------
                            784 ; Function startsfxPrio
                            785 ; ---------------------------------
   02B1                     786 _startsfxPrio_start::
   02B1                     787 _startsfxPrio:
   02B1 DD E5               788 	push	ix
   02B3 DD 21 00 00         789 	ld	ix,#0
   02B7 DD 39               790 	add	ix,sp
                            791 ;main.c:431: if (NULL != pSfxList) {
   02B9 ED 4Br4Cs01         792 	ld	bc,(_pSfxList)
   02BD 79                  793 	ld	a,c
   02BE B0                  794 	or	a,b
   02BF 28 0C               795 	jr	Z,00102$
                            796 ;main.c:432: pSfxList=NULL;
   02C1 FD 21r4Cs01         797 	ld	iy,#_pSfxList
   02C5 FD 36 00 00         798 	ld	0 (iy),#0x00
   02C9 FD 36 01 00         799 	ld	1 (iy),#0x00
   02CD                     800 00102$:
                            801 ;main.c:435: nSfxDelay=(*pDat)-1;
   02CD DD 4E 04            802 	ld	c,4 (ix)
   02D0 DD 46 05            803 	ld	b,5 (ix)
   02D3 0A                  804 	ld	a,(bc)
   02D4 21r4Es01            805 	ld	hl, #_nSfxDelay
   02D7 3D                  806 	dec	a
   02D8 77                  807 	ld	(hl),a
                            808 ;main.c:436: pSfxList=pDat;
   02D9 FD 21r4Cs01         809 	ld	iy,#_pSfxList
   02DD FD 71 00            810 	ld	0 (iy),c
   02E0 FD 70 01            811 	ld	1 (iy),b
                            812 ;main.c:437: sfxEnCours = OUI;
   02E3 21r45s01            813 	ld	hl,#_sfxEnCours + 0
   02E6 36 01               814 	ld	(hl), #0x01
   02E8 DD E1               815 	pop	ix
   02EA C9                  816 	ret
   02EB                     817 _startsfxPrio_end::
                            818 ;main.c:440: void startsfx(unsigned char *pDat) {
                            819 ;	---------------------------------
                            820 ; Function startsfx
                            821 ; ---------------------------------
   02EB                     822 _startsfx_start::
   02EB                     823 _startsfx:
   02EB DD E5               824 	push	ix
   02ED DD 21 00 00         825 	ld	ix,#0
   02F1 DD 39               826 	add	ix,sp
                            827 ;main.c:442: if (NULL != pSfxList) {
   02F3 ED 4Br4Cs01         828 	ld	bc,(_pSfxList)
   02F7 79                  829 	ld	a,c
   02F8 B0                  830 	or	a,b
   02F9 28 0C               831 	jr	Z,00102$
                            832 ;main.c:443: pSfxList=NULL;
   02FB FD 21r4Cs01         833 	ld	iy,#_pSfxList
   02FF FD 36 00 00         834 	ld	0 (iy),#0x00
   0303 FD 36 01 00         835 	ld	1 (iy),#0x00
   0307                     836 00102$:
                            837 ;main.c:446: nSfxDelay=(*pDat)-1;
   0307 DD 4E 04            838 	ld	c,4 (ix)
   030A DD 46 05            839 	ld	b,5 (ix)
   030D 0A                  840 	ld	a,(bc)
   030E 21r4Es01            841 	ld	hl, #_nSfxDelay
   0311 3D                  842 	dec	a
   0312 77                  843 	ld	(hl),a
                            844 ;main.c:447: pSfxList=pDat;
   0313 FD 21r4Cs01         845 	ld	iy,#_pSfxList
   0317 FD 71 00            846 	ld	0 (iy),c
   031A FD 70 01            847 	ld	1 (iy),b
   031D DD E1               848 	pop	ix
   031F C9                  849 	ret
   0320                     850 _startsfx_end::
                            851 ;main.c:453: void changeFontColor(byte col1,byte col2)
                            852 ;	---------------------------------
                            853 ; Function changeFontColor
                            854 ; ---------------------------------
   0320                     855 _changeFontColor_start::
   0320                     856 _changeFontColor:
   0320 DD E5               857 	push	ix
   0322 DD 21 00 00         858 	ld	ix,#0
   0326 DD 39               859 	add	ix,sp
                            860 ;main.c:457: finalColor = col1 << 4;
   0328 DD 7E 04            861 	ld	a,4 (ix)
   032B 07                  862 	rlca
   032C 07                  863 	rlca
   032D 07                  864 	rlca
   032E 07                  865 	rlca
   032F E6 F0               866 	and	a,#0xF0
                            867 ;main.c:458: finalColor+= col2;
   0331 DD 86 05            868 	add	a,5 (ix)
   0334 4F                  869 	ld	c,a
                            870 ;main.c:460: fill_vram(coltab+(32*8),finalColor,59*8);
   0335 C5                  871 	push	bc
   0336 21 D8 01            872 	ld	hl,#0x01D8
   0339 E5                  873 	push	hl
   033A 79                  874 	ld	a,c
   033B F5                  875 	push	af
   033C 33                  876 	inc	sp
   033D 21 00 21            877 	ld	hl,#0x2100
   0340 E5                  878 	push	hl
   0341 CDr00s00            879 	call	_fill_vram
   0344 F1                  880 	pop	af
   0345 F1                  881 	pop	af
   0346 33                  882 	inc	sp
   0347 C1                  883 	pop	bc
                            884 ;main.c:461: fill_vram(coltab+(32*8)+2048,finalColor,59*8);
   0348 C5                  885 	push	bc
   0349 21 D8 01            886 	ld	hl,#0x01D8
   034C E5                  887 	push	hl
   034D 79                  888 	ld	a,c
   034E F5                  889 	push	af
   034F 33                  890 	inc	sp
   0350 21 00 29            891 	ld	hl,#0x2900
   0353 E5                  892 	push	hl
   0354 CDr00s00            893 	call	_fill_vram
   0357 F1                  894 	pop	af
   0358 F1                  895 	pop	af
   0359 33                  896 	inc	sp
   035A C1                  897 	pop	bc
                            898 ;main.c:462: fill_vram(coltab+(32*8)+4096,finalColor,59*8);
   035B 21 D8 01            899 	ld	hl,#0x01D8
   035E E5                  900 	push	hl
   035F 79                  901 	ld	a,c
   0360 F5                  902 	push	af
   0361 33                  903 	inc	sp
   0362 21 00 31            904 	ld	hl,#0x3100
   0365 E5                  905 	push	hl
   0366 CDr00s00            906 	call	_fill_vram
   0369 F1                  907 	pop	af
   036A F1                  908 	pop	af
   036B 33                  909 	inc	sp
   036C DD E1               910 	pop	ix
   036E C9                  911 	ret
   036F                     912 _changeFontColor_end::
                            913 ;main.c:465: void addScore(byte s)
                            914 ;	---------------------------------
                            915 ; Function addScore
                            916 ; ---------------------------------
   036F                     917 _addScore_start::
   036F                     918 _addScore:
   036F DD E5               919 	push	ix
   0371 DD 21 00 00         920 	ld	ix,#0
   0375 DD 39               921 	add	ix,sp
                            922 ;main.c:467: if (player.score<=65000) player.score+=s;
   0377 21r19s00            923 	ld	hl,#0x0017 + _player
   037A 7E                  924 	ld	a,(hl)
   037B 23                  925 	inc	hl
   037C 66                  926 	ld	h,(hl)
   037D 6F                  927 	ld	l,a
   037E 4D                  928 	ld	c,l
   037F 44                  929 	ld	b,h
   0380 11 00 00            930 	ld	de,#0x0000
   0383 3E E8               931 	ld	a,#0xE8
   0385 91                  932 	sub	a,c
   0386 3E FD               933 	ld	a,#0xFD
   0388 98                  934 	sbc	a,b
   0389 3E 00               935 	ld	a,#0x00
   038B 9B                  936 	sbc	a,e
   038C 3E 00               937 	ld	a,#0x00
   038E 9A                  938 	sbc	a,d
   038F E2r94s03            939 	jp	PO,00106$
   0392 EE 80               940 	xor	a,#0x80
   0394                     941 00106$:
   0394 FArA5s03            942 	jp	M,00103$
   0397 DD 4E 04            943 	ld	c,4 (ix)
   039A 06 00               944 	ld	b,#0x00
   039C 09                  945 	add	hl,bc
   039D 4D                  946 	ld	c,l
   039E 44                  947 	ld	b,h
   039F 21r19s00            948 	ld	hl,#0x0017 + _player
   03A2 71                  949 	ld	(hl),c
   03A3 23                  950 	inc	hl
   03A4 70                  951 	ld	(hl),b
   03A5                     952 00103$:
   03A5 DD E1               953 	pop	ix
   03A7 C9                  954 	ret
   03A8                     955 _addScore_end::
                            956 ;main.c:470: void initBonus()
                            957 ;	---------------------------------
                            958 ; Function initBonus
                            959 ; ---------------------------------
   03A8                     960 _initBonus_start::
   03A8                     961 _initBonus:
                            962 ;main.c:472: sprites[SPRITE6].y = 204;
   03A8 21r0Cs00            963 	ld	hl,#0x000c + _sprites
   03AB 36 CC               964 	ld	(hl),#0xCC
                            965 ;main.c:473: bonus.py=204;
   03AD 21r86s00            966 	ld	hl,#0x0005 + _bonus
   03B0 36 CC               967 	ld	(hl),#0xCC
                            968 ;main.c:474: bonus.actif = NOK;
   03B2 21r81s00            969 	ld	hl,#_bonus
   03B5 36 01               970 	ld	(hl),#0x01
                            971 ;main.c:475: bonus.affiche = NOK;
   03B7 21r82s00            972 	ld	hl,#0x0001 + _bonus
   03BA 36 01               973 	ld	(hl),#0x01
                            974 ;main.c:476: currentBonus = 0;
   03BC 21r8Bs00            975 	ld	hl,#_currentBonus + 0
   03BF 36 00               976 	ld	(hl), #0x00
   03C1 C9                  977 	ret
   03C2                     978 _initBonus_end::
                            979 ;main.c:479: void desactivateBonus()
                            980 ;	---------------------------------
                            981 ; Function desactivateBonus
                            982 ; ---------------------------------
   03C2                     983 _desactivateBonus_start::
   03C2                     984 _desactivateBonus:
                            985 ;main.c:481: bonus.py = 204;
   03C2 21r86s00            986 	ld	hl,#0x0005 + _bonus
   03C5 36 CC               987 	ld	(hl),#0xCC
                            988 ;main.c:482: sprites[SPRITE6].y = 204;
   03C7 21r0Cs00            989 	ld	hl,#0x000c + _sprites
   03CA 36 CC               990 	ld	(hl),#0xCC
                            991 ;main.c:484: bonus.actif = NOK;
   03CC 21r81s00            992 	ld	hl,#_bonus
   03CF 36 01               993 	ld	(hl),#0x01
                            994 ;main.c:485: bonus.affiche = NOK;
   03D1 21r82s00            995 	ld	hl,#0x0001 + _bonus
   03D4 36 01               996 	ld	(hl),#0x01
   03D6 C9                  997 	ret
   03D7                     998 _desactivateBonus_end::
                            999 ;main.c:488: void createBonus()
                           1000 ;	---------------------------------
                           1001 ; Function createBonus
                           1002 ; ---------------------------------
   03D7                    1003 _createBonus_start::
   03D7                    1004 _createBonus:
                           1005 ;main.c:490: if (bonus.actif==NOK)
   03D7 3Ar81s00           1006 	ld	a,(#_bonus)
   03DA D6 01              1007 	sub	a,#0x01
   03DC 28 01              1008 	jr	Z,00154$
   03DE C9                 1009 	ret
   03DF                    1010 00154$:
                           1011 ;main.c:492: bonus.actif = OK;
   03DF 21r81s00           1012 	ld	hl,#_bonus
   03E2 36 00              1013 	ld	(hl),#0x00
                           1014 ;main.c:493: bonus.pattern = BONUS[currentBonus];
   03E4 21r8Bs00           1015 	ld	hl,#_currentBonus
   03E7 3Er1E              1016 	ld	a,#<(_BONUS)
   03E9 86                 1017 	add	a,(hl)
   03EA 4F                 1018 	ld	c,a
   03EB 3Es00              1019 	ld	a,#>(_BONUS)
   03ED CE 00              1020 	adc	a,#0x00
   03EF 47                 1021 	ld	b,a
   03F0 0A                 1022 	ld	a,(bc)
   03F1 32r87s00           1023 	ld	(#0x0006 + _bonus),a
                           1024 ;main.c:494: currentBonus++;
   03F4 FD 21r8Bs00        1025 	ld	iy,#_currentBonus
   03F8 FD 34 00           1026 	inc	0 (iy)
                           1027 ;main.c:495: if (currentBonus==72) currentBonus = 69;
   03FB FD 7E 00           1028 	ld	a,0 (iy)
   03FE D6 48              1029 	sub	a,#0x48
   0400 20 04              1030 	jr	NZ,00102$
   0402 FD 36 00 45        1031 	ld	0 (iy),#0x45
   0406                    1032 00102$:
                           1033 ;main.c:497: if (bonus.pattern==BONUS1) bonus.colour = 10;
   0406 3Ar87s00           1034 	ld	a,(#0x0006 + _bonus)
   0409 D6 30              1035 	sub	a,#0x30
   040B 20 08              1036 	jr	NZ,00130$
   040D 21r88s00           1037 	ld	hl,#0x0007 + _bonus
   0410 36 0A              1038 	ld	(hl),#0x0A
   0412 C3r92s04           1039 	jp	00131$
   0415                    1040 00130$:
                           1041 ;main.c:498: else if (bonus.pattern==BONUS2) bonus.colour = 4;
   0415 3Ar87s00           1042 	ld	a,(#0x0006 + _bonus)
   0418 D6 34              1043 	sub	a,#0x34
   041A 20 08              1044 	jr	NZ,00127$
   041C 21r88s00           1045 	ld	hl,#0x0007 + _bonus
   041F 36 04              1046 	ld	(hl),#0x04
   0421 C3r92s04           1047 	jp	00131$
   0424                    1048 00127$:
                           1049 ;main.c:499: else if (bonus.pattern==BONUS3) bonus.colour = 10;
   0424 3Ar87s00           1050 	ld	a,(#0x0006 + _bonus)
   0427 D6 38              1051 	sub	a,#0x38
   0429 20 07              1052 	jr	NZ,00124$
   042B 21r88s00           1053 	ld	hl,#0x0007 + _bonus
   042E 36 0A              1054 	ld	(hl),#0x0A
   0430 18 60              1055 	jr	00131$
   0432                    1056 00124$:
                           1057 ;main.c:500: else if (bonus.pattern==BONUS4) bonus.colour = 13;
   0432 3Ar87s00           1058 	ld	a,(#0x0006 + _bonus)
   0435 D6 3C              1059 	sub	a,#0x3C
   0437 20 07              1060 	jr	NZ,00121$
   0439 21r88s00           1061 	ld	hl,#0x0007 + _bonus
   043C 36 0D              1062 	ld	(hl),#0x0D
   043E 18 52              1063 	jr	00131$
   0440                    1064 00121$:
                           1065 ;main.c:501: else if (bonus.pattern==BONUS5) bonus.colour = 12;
   0440 3Ar87s00           1066 	ld	a,(#0x0006 + _bonus)
   0443 D6 40              1067 	sub	a,#0x40
   0445 20 07              1068 	jr	NZ,00118$
   0447 21r88s00           1069 	ld	hl,#0x0007 + _bonus
   044A 36 0C              1070 	ld	(hl),#0x0C
   044C 18 44              1071 	jr	00131$
   044E                    1072 00118$:
                           1073 ;main.c:502: else if (bonus.pattern==BONUS6) bonus.colour = 10;
   044E 3Ar87s00           1074 	ld	a,(#0x0006 + _bonus)
   0451 D6 44              1075 	sub	a,#0x44
   0453 20 07              1076 	jr	NZ,00115$
   0455 21r88s00           1077 	ld	hl,#0x0007 + _bonus
   0458 36 0A              1078 	ld	(hl),#0x0A
   045A 18 36              1079 	jr	00131$
   045C                    1080 00115$:
                           1081 ;main.c:503: else if (bonus.pattern==BONUS7) bonus.colour = 7;
   045C 3Ar87s00           1082 	ld	a,(#0x0006 + _bonus)
   045F D6 48              1083 	sub	a,#0x48
   0461 20 07              1084 	jr	NZ,00112$
   0463 21r88s00           1085 	ld	hl,#0x0007 + _bonus
   0466 36 07              1086 	ld	(hl),#0x07
   0468 18 28              1087 	jr	00131$
   046A                    1088 00112$:
                           1089 ;main.c:504: else if (bonus.pattern==BONUS8) bonus.colour = 15;
   046A 3Ar87s00           1090 	ld	a,(#0x0006 + _bonus)
   046D D6 4C              1091 	sub	a,#0x4C
   046F 20 07              1092 	jr	NZ,00109$
   0471 21r88s00           1093 	ld	hl,#0x0007 + _bonus
   0474 36 0F              1094 	ld	(hl),#0x0F
   0476 18 1A              1095 	jr	00131$
   0478                    1096 00109$:
                           1097 ;main.c:505: else if (bonus.pattern==BONUS9) bonus.colour = 14;
   0478 3Ar87s00           1098 	ld	a,(#0x0006 + _bonus)
   047B D6 50              1099 	sub	a,#0x50
   047D 20 07              1100 	jr	NZ,00106$
   047F 21r88s00           1101 	ld	hl,#0x0007 + _bonus
   0482 36 0E              1102 	ld	(hl),#0x0E
   0484 18 0C              1103 	jr	00131$
   0486                    1104 00106$:
                           1105 ;main.c:506: else if (bonus.pattern==BONUS10) bonus.colour = 6;
   0486 3Ar87s00           1106 	ld	a,(#0x0006 + _bonus)
   0489 D6 54              1107 	sub	a,#0x54
   048B 20 05              1108 	jr	NZ,00131$
   048D 21r88s00           1109 	ld	hl,#0x0007 + _bonus
   0490 36 06              1110 	ld	(hl),#0x06
   0492                    1111 00131$:
                           1112 ;main.c:508: bonus.px = 120;bonus.py = 72;
   0492 21r85s00           1113 	ld	hl,#0x0004 + _bonus
   0495 36 78              1114 	ld	(hl),#0x78
   0497 23                 1115 	inc	hl
   0498 36 48              1116 	ld	(hl),#0x48
                           1117 ;main.c:509: if ( (player.py>=72) && (player.py<=88) ) { bonus.px = 120;bonus.py = 104; }
   049A 21r03s00           1118 	ld	hl,#0x0001 + _player
   049D 6E                 1119 	ld	l,(hl)
   049E 7D                 1120 	ld	a,l
   049F D6 48              1121 	sub	a,#0x48
   04A1 38 0D              1122 	jr	C,00133$
   04A3 3E 58              1123 	ld	a,#0x58
   04A5 95                 1124 	sub	a,l
   04A6 38 08              1125 	jr	C,00133$
   04A8 21r85s00           1126 	ld	hl,#0x0004 + _bonus
   04AB 36 78              1127 	ld	(hl),#0x78
   04AD 23                 1128 	inc	hl
   04AE 36 68              1129 	ld	(hl),#0x68
   04B0                    1130 00133$:
                           1131 ;main.c:510: player.nbMoveForBonus = levelParamBonusShowTime;
   04B0 21r1Cs00           1132 	ld	hl,#0x001a + _player
   04B3 FD 21r24s01        1133 	ld	iy,#_levelParamBonusShowTime
   04B7 FD 7E 00           1134 	ld	a,0 (iy)
   04BA 77                 1135 	ld	(hl),a
   04BB 23                 1136 	inc	hl
   04BC FD 7E 01           1137 	ld	a,1 (iy)
   04BF 77                 1138 	ld	(hl),a
   04C0 C9                 1139 	ret
   04C1                    1140 _createBonus_end::
                           1141 ;main.c:514: void renderBonus()
                           1142 ;	---------------------------------
                           1143 ; Function renderBonus
                           1144 ; ---------------------------------
   04C1                    1145 _renderBonus_start::
   04C1                    1146 _renderBonus:
                           1147 ;main.c:516: if (bonus.actif == OK)
   04C1 3Ar81s00           1148 	ld	a,(#_bonus)
   04C4 B7                 1149 	or	a,a
   04C5 C0                 1150 	ret	NZ
                           1151 ;main.c:518: if (player.nbMoveForBonus==0) {desactivateBonus();} else {player.nbMoveForBonus --;}
   04C6 21r1Cs00           1152 	ld	hl,#0x001a + _player
   04C9 4E                 1153 	ld	c,(hl)
   04CA 23                 1154 	inc	hl
   04CB 46                 1155 	ld	b,(hl)
   04CC 79                 1156 	ld	a,c
   04CD B0                 1157 	or	a,b
   04CE 20 05              1158 	jr	NZ,00102$
   04D0 CDrC2s03           1159 	call	_desactivateBonus
   04D3 18 07              1160 	jr	00103$
   04D5                    1161 00102$:
   04D5 0B                 1162 	dec	bc
   04D6 21r1Cs00           1163 	ld	hl,#0x001a + _player
   04D9 71                 1164 	ld	(hl),c
   04DA 23                 1165 	inc	hl
   04DB 70                 1166 	ld	(hl),b
   04DC                    1167 00103$:
                           1168 ;main.c:521: if (bonus.affiche = NOK)
   04DC 21r82s00           1169 	ld	hl,#0x0001 + _bonus
   04DF 36 01              1170 	ld	(hl),#0x01
                           1171 ;main.c:523: sprites[SPRITE6].pattern = bonus.pattern;
   04E1 3Ar87s00           1172 	ld	a,(#0x0006 + _bonus)
   04E4 32r0Es00           1173 	ld	(#0x000e + _sprites),a
                           1174 ;main.c:524: sprites[SPRITE6].colour = bonus.colour;
   04E7 3Ar88s00           1175 	ld	a,(#0x0007 + _bonus)
   04EA 32r0Fs00           1176 	ld	(#0x000f + _sprites),a
                           1177 ;main.c:525: sprites[SPRITE6].x = bonus.px;
   04ED 3Ar85s00           1178 	ld	a,(#0x0004 + _bonus)
   04F0 32r0Ds00           1179 	ld	(#0x000d + _sprites),a
                           1180 ;main.c:526: sprites[SPRITE6].y = bonus.py;
   04F3 3Ar86s00           1181 	ld	a,(#0x0005 + _bonus)
   04F6 32r0Cs00           1182 	ld	(#0x000c + _sprites),a
                           1183 ;main.c:528: bonus.affiche = OK;			
   04F9 21r82s00           1184 	ld	hl,#0x0001 + _bonus
   04FC 36 00              1185 	ld	(hl),#0x00
   04FE C9                 1186 	ret
   04FF                    1187 _renderBonus_end::
                           1188 ;main.c:534: void renderPlayerScore(void)
                           1189 ;	---------------------------------
                           1190 ; Function renderPlayerScore
                           1191 ; ---------------------------------
   04FF                    1192 _renderPlayerScore_start::
   04FF                    1193 _renderPlayerScore:
                           1194 ;main.c:537: pointage = str(player.score);
   04FF 21r19s00           1195 	ld	hl,#0x0017 + _player
   0502 7E                 1196 	ld	a,(hl)
   0503 23                 1197 	inc	hl
   0504 66                 1198 	ld	h,(hl)
   0505 6F                 1199 	ld	l,a
   0506 E5                 1200 	push	hl
   0507 CDr00s00           1201 	call	_str
   050A F1                 1202 	pop	af
   050B 4D                 1203 	ld	c,l
   050C 44                 1204 	ld	b,h
                           1205 ;main.c:539: put_char(2,3,pointage[0]);
   050D 0A                 1206 	ld	a,(bc)
   050E 6F                 1207 	ld	l,a
   050F C5                 1208 	push	bc
   0510 7D                 1209 	ld	a,l
   0511 F5                 1210 	push	af
   0512 33                 1211 	inc	sp
   0513 21 02 03           1212 	ld	hl,#0x0302
   0516 E5                 1213 	push	hl
   0517 CDr00s00           1214 	call	_put_char
   051A F1                 1215 	pop	af
   051B 33                 1216 	inc	sp
   051C C1                 1217 	pop	bc
                           1218 ;main.c:540: put_char(2,4,pointage[1]);
   051D 59                 1219 	ld	e,c
   051E 50                 1220 	ld	d,b
   051F 13                 1221 	inc	de
   0520 1A                 1222 	ld	a,(de)
   0521 6F                 1223 	ld	l,a
   0522 C5                 1224 	push	bc
   0523 7D                 1225 	ld	a,l
   0524 F5                 1226 	push	af
   0525 33                 1227 	inc	sp
   0526 21 02 04           1228 	ld	hl,#0x0402
   0529 E5                 1229 	push	hl
   052A CDr00s00           1230 	call	_put_char
   052D F1                 1231 	pop	af
   052E 33                 1232 	inc	sp
   052F C1                 1233 	pop	bc
                           1234 ;main.c:541: put_char(2,5,pointage[2]);
   0530 59                 1235 	ld	e,c
   0531 50                 1236 	ld	d,b
   0532 13                 1237 	inc	de
   0533 13                 1238 	inc	de
   0534 1A                 1239 	ld	a,(de)
   0535 6F                 1240 	ld	l,a
   0536 C5                 1241 	push	bc
   0537 7D                 1242 	ld	a,l
   0538 F5                 1243 	push	af
   0539 33                 1244 	inc	sp
   053A 21 02 05           1245 	ld	hl,#0x0502
   053D E5                 1246 	push	hl
   053E CDr00s00           1247 	call	_put_char
   0541 F1                 1248 	pop	af
   0542 33                 1249 	inc	sp
   0543 C1                 1250 	pop	bc
                           1251 ;main.c:542: put_char(2,6,pointage[3]);
   0544 21 03 00           1252 	ld	hl,#0x0003
   0547 09                 1253 	add	hl,bc
   0548 6E                 1254 	ld	l, (hl)
   0549 C5                 1255 	push	bc
   054A 7D                 1256 	ld	a,l
   054B F5                 1257 	push	af
   054C 33                 1258 	inc	sp
   054D 21 02 06           1259 	ld	hl,#0x0602
   0550 E5                 1260 	push	hl
   0551 CDr00s00           1261 	call	_put_char
   0554 F1                 1262 	pop	af
   0555 33                 1263 	inc	sp
   0556 C1                 1264 	pop	bc
                           1265 ;main.c:543: put_char(2,7,pointage[4]);
   0557 03                 1266 	inc	bc
   0558 03                 1267 	inc	bc
   0559 03                 1268 	inc	bc
   055A 03                 1269 	inc	bc
   055B 0A                 1270 	ld	a,(bc)
   055C F5                 1271 	push	af
   055D 33                 1272 	inc	sp
   055E 21 02 07           1273 	ld	hl,#0x0702
   0561 E5                 1274 	push	hl
   0562 CDr00s00           1275 	call	_put_char
   0565 F1                 1276 	pop	af
   0566 33                 1277 	inc	sp
   0567 C9                 1278 	ret
   0568                    1279 _renderPlayerScore_end::
                           1280 ;main.c:547: void renderPlayerHiScore(void)
                           1281 ;	---------------------------------
                           1282 ; Function renderPlayerHiScore
                           1283 ; ---------------------------------
   0568                    1284 _renderPlayerHiScore_start::
   0568                    1285 _renderPlayerHiScore:
                           1286 ;main.c:550: pointage = str(hiscore);
   0568 2Ar00s00           1287 	ld	hl,(_hiscore)
   056B E5                 1288 	push	hl
   056C CDr00s00           1289 	call	_str
   056F F1                 1290 	pop	af
   0570 4D                 1291 	ld	c,l
   0571 44                 1292 	ld	b,h
                           1293 ;main.c:552: put_char(30,3,pointage[0]);
   0572 0A                 1294 	ld	a,(bc)
   0573 6F                 1295 	ld	l,a
   0574 C5                 1296 	push	bc
   0575 7D                 1297 	ld	a,l
   0576 F5                 1298 	push	af
   0577 33                 1299 	inc	sp
   0578 21 1E 03           1300 	ld	hl,#0x031E
   057B E5                 1301 	push	hl
   057C CDr00s00           1302 	call	_put_char
   057F F1                 1303 	pop	af
   0580 33                 1304 	inc	sp
   0581 C1                 1305 	pop	bc
                           1306 ;main.c:553: put_char(30,4,pointage[1]);
   0582 59                 1307 	ld	e,c
   0583 50                 1308 	ld	d,b
   0584 13                 1309 	inc	de
   0585 1A                 1310 	ld	a,(de)
   0586 6F                 1311 	ld	l,a
   0587 C5                 1312 	push	bc
   0588 7D                 1313 	ld	a,l
   0589 F5                 1314 	push	af
   058A 33                 1315 	inc	sp
   058B 21 1E 04           1316 	ld	hl,#0x041E
   058E E5                 1317 	push	hl
   058F CDr00s00           1318 	call	_put_char
   0592 F1                 1319 	pop	af
   0593 33                 1320 	inc	sp
   0594 C1                 1321 	pop	bc
                           1322 ;main.c:554: put_char(30,5,pointage[2]);
   0595 59                 1323 	ld	e,c
   0596 50                 1324 	ld	d,b
   0597 13                 1325 	inc	de
   0598 13                 1326 	inc	de
   0599 1A                 1327 	ld	a,(de)
   059A 6F                 1328 	ld	l,a
   059B C5                 1329 	push	bc
   059C 7D                 1330 	ld	a,l
   059D F5                 1331 	push	af
   059E 33                 1332 	inc	sp
   059F 21 1E 05           1333 	ld	hl,#0x051E
   05A2 E5                 1334 	push	hl
   05A3 CDr00s00           1335 	call	_put_char
   05A6 F1                 1336 	pop	af
   05A7 33                 1337 	inc	sp
   05A8 C1                 1338 	pop	bc
                           1339 ;main.c:555: put_char(30,6,pointage[3]);
   05A9 21 03 00           1340 	ld	hl,#0x0003
   05AC 09                 1341 	add	hl,bc
   05AD 6E                 1342 	ld	l, (hl)
   05AE C5                 1343 	push	bc
   05AF 7D                 1344 	ld	a,l
   05B0 F5                 1345 	push	af
   05B1 33                 1346 	inc	sp
   05B2 21 1E 06           1347 	ld	hl,#0x061E
   05B5 E5                 1348 	push	hl
   05B6 CDr00s00           1349 	call	_put_char
   05B9 F1                 1350 	pop	af
   05BA 33                 1351 	inc	sp
   05BB C1                 1352 	pop	bc
                           1353 ;main.c:556: put_char(30,7,pointage[4]);
   05BC 03                 1354 	inc	bc
   05BD 03                 1355 	inc	bc
   05BE 03                 1356 	inc	bc
   05BF 03                 1357 	inc	bc
   05C0 0A                 1358 	ld	a,(bc)
   05C1 F5                 1359 	push	af
   05C2 33                 1360 	inc	sp
   05C3 21 1E 07           1361 	ld	hl,#0x071E
   05C6 E5                 1362 	push	hl
   05C7 CDr00s00           1363 	call	_put_char
   05CA F1                 1364 	pop	af
   05CB 33                 1365 	inc	sp
   05CC C9                 1366 	ret
   05CD                    1367 _renderPlayerHiScore_end::
                           1368 ;main.c:560: void renderPlayerNbLives(void)
                           1369 ;	---------------------------------
                           1370 ; Function renderPlayerNbLives
                           1371 ; ---------------------------------
   05CD                    1372 _renderPlayerNbLives_start::
   05CD                    1373 _renderPlayerNbLives:
                           1374 ;main.c:563: pointage = str(player.nbLives);
   05CD 21r1Fs00           1375 	ld	hl,#0x001d + _player
   05D0 6E                 1376 	ld	l,(hl)
   05D1 7D                 1377 	ld	a,l
   05D2 17                 1378 	rla	
   05D3 9F                 1379 	sbc	a,a
   05D4 67                 1380 	ld	h,a
   05D5 E5                 1381 	push	hl
   05D6 CDr00s00           1382 	call	_str
   05D9 F1                 1383 	pop	af
                           1384 ;main.c:565: put_char(3,19,pointage[4]);
   05DA 01 04 00           1385 	ld	bc, #0x0004
   05DD 09                 1386 	add	hl,bc
   05DE 7E                 1387 	ld	a,(hl)
   05DF F5                 1388 	push	af
   05E0 33                 1389 	inc	sp
   05E1 21 03 13           1390 	ld	hl,#0x1303
   05E4 E5                 1391 	push	hl
   05E5 CDr00s00           1392 	call	_put_char
   05E8 F1                 1393 	pop	af
   05E9 33                 1394 	inc	sp
   05EA C9                 1395 	ret
   05EB                    1396 _renderPlayerNbLives_end::
                           1397 ;main.c:569: void renderPlayerLevel(void)
                           1398 ;	---------------------------------
                           1399 ; Function renderPlayerLevel
                           1400 ; ---------------------------------
   05EB                    1401 _renderPlayerLevel_start::
   05EB                    1402 _renderPlayerLevel:
                           1403 ;main.c:572: pointage = str(currentLevel);
   05EB 21r97s00           1404 	ld	hl,#_currentLevel + 0
   05EE 4E                 1405 	ld	c,(hl)
   05EF 06 00              1406 	ld	b,#0x00
   05F1 C5                 1407 	push	bc
   05F2 CDr00s00           1408 	call	_str
   05F5 F1                 1409 	pop	af
   05F6 4D                 1410 	ld	c,l
   05F7 44                 1411 	ld	b,h
                           1412 ;main.c:574: put_char(29,20,pointage[2]);
   05F8 59                 1413 	ld	e,c
   05F9 50                 1414 	ld	d,b
   05FA 13                 1415 	inc	de
   05FB 13                 1416 	inc	de
   05FC 1A                 1417 	ld	a,(de)
   05FD 6F                 1418 	ld	l,a
   05FE C5                 1419 	push	bc
   05FF 7D                 1420 	ld	a,l
   0600 F5                 1421 	push	af
   0601 33                 1422 	inc	sp
   0602 21 1D 14           1423 	ld	hl,#0x141D
   0605 E5                 1424 	push	hl
   0606 CDr00s00           1425 	call	_put_char
   0609 F1                 1426 	pop	af
   060A 33                 1427 	inc	sp
   060B C1                 1428 	pop	bc
                           1429 ;main.c:575: put_char(29,21,pointage[3]);	
   060C 21 03 00           1430 	ld	hl,#0x0003
   060F 09                 1431 	add	hl,bc
   0610 6E                 1432 	ld	l, (hl)
   0611 C5                 1433 	push	bc
   0612 7D                 1434 	ld	a,l
   0613 F5                 1435 	push	af
   0614 33                 1436 	inc	sp
   0615 21 1D 15           1437 	ld	hl,#0x151D
   0618 E5                 1438 	push	hl
   0619 CDr00s00           1439 	call	_put_char
   061C F1                 1440 	pop	af
   061D 33                 1441 	inc	sp
   061E C1                 1442 	pop	bc
                           1443 ;main.c:576: put_char(29,22,pointage[4]);
   061F 03                 1444 	inc	bc
   0620 03                 1445 	inc	bc
   0621 03                 1446 	inc	bc
   0622 03                 1447 	inc	bc
   0623 0A                 1448 	ld	a,(bc)
   0624 F5                 1449 	push	af
   0625 33                 1450 	inc	sp
   0626 21 1D 16           1451 	ld	hl,#0x161D
   0629 E5                 1452 	push	hl
   062A CDr00s00           1453 	call	_put_char
   062D F1                 1454 	pop	af
   062E 33                 1455 	inc	sp
   062F C9                 1456 	ret
   0630                    1457 _renderPlayerLevel_end::
                           1458 ;main.c:581: byte isCollision(byte x1,byte y1,byte h1,byte l1,byte x2,byte y2,byte h2,byte l2)
                           1459 ;	---------------------------------
                           1460 ; Function isCollision
                           1461 ; ---------------------------------
   0630                    1462 _isCollision_start::
   0630                    1463 _isCollision:
   0630 DD E5              1464 	push	ix
   0632 DD 21 00 00        1465 	ld	ix,#0
   0636 DD 39              1466 	add	ix,sp
                           1467 ;main.c:583: if(x1 > x2+l2) return NOK;
   0638 DD 4E 08           1468 	ld	c,8 (ix)
   063B 06 00              1469 	ld	b,#0x00
   063D DD 6E 0B           1470 	ld	l,11 (ix)
   0640 26 00              1471 	ld	h,#0x00
   0642 09                 1472 	add	hl,bc
   0643 EB                 1473 	ex	de,hl
   0644 DD 6E 04           1474 	ld	l,4 (ix)
   0647 26 00              1475 	ld	h,#0x00
   0649 7B                 1476 	ld	a,e
   064A 95                 1477 	sub	a,l
   064B 7A                 1478 	ld	a,d
   064C 9C                 1479 	sbc	a,h
   064D E2r52s06           1480 	jp	PO,00115$
   0650 EE 80              1481 	xor	a,#0x80
   0652                    1482 00115$:
   0652 F2r59s06           1483 	jp	P,00102$
   0655 2E 01              1484 	ld	l,#0x01
   0657 18 51              1485 	jr	00109$
   0659                    1486 00102$:
                           1487 ;main.c:584: if(x1+l1 < x2) return NOK;
   0659 DD 5E 07           1488 	ld	e,7 (ix)
   065C 16 00              1489 	ld	d,#0x00
   065E 19                 1490 	add	hl,de
   065F 7D                 1491 	ld	a, l
   0660 54                 1492 	ld	d, h
   0661 91                 1493 	sub	a,c
   0662 7A                 1494 	ld	a,d
   0663 98                 1495 	sbc	a,b
   0664 E2r69s06           1496 	jp	PO,00116$
   0667 EE 80              1497 	xor	a,#0x80
   0669                    1498 00116$:
   0669 F2r70s06           1499 	jp	P,00104$
   066C 2E 01              1500 	ld	l,#0x01
   066E 18 3A              1501 	jr	00109$
   0670                    1502 00104$:
                           1503 ;main.c:585: if(y1 > y2+h2) return NOK;
   0670 DD 4E 09           1504 	ld	c,9 (ix)
   0673 06 00              1505 	ld	b,#0x00
   0675 DD 6E 0A           1506 	ld	l,10 (ix)
   0678 26 00              1507 	ld	h,#0x00
   067A 09                 1508 	add	hl,bc
   067B EB                 1509 	ex	de,hl
   067C DD 6E 05           1510 	ld	l,5 (ix)
   067F 26 00              1511 	ld	h,#0x00
   0681 7B                 1512 	ld	a,e
   0682 95                 1513 	sub	a,l
   0683 7A                 1514 	ld	a,d
   0684 9C                 1515 	sbc	a,h
   0685 E2r8As06           1516 	jp	PO,00117$
   0688 EE 80              1517 	xor	a,#0x80
   068A                    1518 00117$:
   068A F2r91s06           1519 	jp	P,00106$
   068D 2E 01              1520 	ld	l,#0x01
   068F 18 19              1521 	jr	00109$
   0691                    1522 00106$:
                           1523 ;main.c:586: if(y1+h1 < y2) return NOK;
   0691 DD 5E 06           1524 	ld	e,6 (ix)
   0694 16 00              1525 	ld	d,#0x00
   0696 19                 1526 	add	hl,de
   0697 7D                 1527 	ld	a, l
   0698 54                 1528 	ld	d, h
   0699 91                 1529 	sub	a,c
   069A 7A                 1530 	ld	a,d
   069B 98                 1531 	sbc	a,b
   069C E2rA1s06           1532 	jp	PO,00118$
   069F EE 80              1533 	xor	a,#0x80
   06A1                    1534 00118$:
   06A1 F2rA8s06           1535 	jp	P,00108$
   06A4 2E 01              1536 	ld	l,#0x01
   06A6 18 02              1537 	jr	00109$
   06A8                    1538 00108$:
                           1539 ;main.c:588: return OK;
   06A8 2E 00              1540 	ld	l,#0x00
   06AA                    1541 00109$:
   06AA DD E1              1542 	pop	ix
   06AC C9                 1543 	ret
   06AD                    1544 _isCollision_end::
                           1545 ;main.c:591: byte peekGhostGameZone(byte x,byte y)
                           1546 ;	---------------------------------
                           1547 ; Function peekGhostGameZone
                           1548 ; ---------------------------------
   06AD                    1549 _peekGhostGameZone_start::
   06AD                    1550 _peekGhostGameZone:
   06AD DD E5              1551 	push	ix
   06AF DD 21 00 00        1552 	ld	ix,#0
   06B3 DD 39              1553 	add	ix,sp
                           1554 ;main.c:593: if (extend==0)
   06B5 AF                 1555 	xor	a,a
   06B6 21r8As00           1556 	ld	hl,#_extend + 0
   06B9 B6                 1557 	or	a,(hl)
   06BA 20 27              1558 	jr	NZ,00108$
                           1559 ;main.c:595: return GHOSTGAMEZONE[x+(y<<5)];
   06BC DD 6E 04           1560 	ld	l,4 (ix)
   06BF 26 00              1561 	ld	h,#0x00
   06C1 DD 4E 05           1562 	ld	c,5 (ix)
   06C4 06 00              1563 	ld	b,#0x00
   06C6 CB 21              1564 	sla	c
   06C8 CB 10              1565 	rl	b
   06CA CB 21              1566 	sla	c
   06CC CB 10              1567 	rl	b
   06CE CB 21              1568 	sla	c
   06D0 CB 10              1569 	rl	b
   06D2 CB 21              1570 	sla	c
   06D4 CB 10              1571 	rl	b
   06D6 CB 21              1572 	sla	c
   06D8 CB 10              1573 	rl	b
   06DA 09                 1574 	add	hl,bc
   06DB 01r00s00           1575 	ld	bc,#_GHOSTGAMEZONE
   06DE 09                 1576 	add	hl,bc
   06DF 6E                 1577 	ld	l, (hl)
   06E0 C3r61s07           1578 	jp	00110$
   06E3                    1579 00108$:
                           1580 ;main.c:599: if (currentAbsoluteLevel==3) 
   06E3 3Ar98s00           1581 	ld	a,(#_currentAbsoluteLevel + 0)
   06E6 D6 03              1582 	sub	a,#0x03
   06E8 20 26              1583 	jr	NZ,00105$
                           1584 ;main.c:601: return GHOSTGAMEZONE_LEVEL3[x+(y<<5)];
   06EA DD 6E 04           1585 	ld	l,4 (ix)
   06ED 26 00              1586 	ld	h,#0x00
   06EF DD 4E 05           1587 	ld	c,5 (ix)
   06F2 06 00              1588 	ld	b,#0x00
   06F4 CB 21              1589 	sla	c
   06F6 CB 10              1590 	rl	b
   06F8 CB 21              1591 	sla	c
   06FA CB 10              1592 	rl	b
   06FC CB 21              1593 	sla	c
   06FE CB 10              1594 	rl	b
   0700 CB 21              1595 	sla	c
   0702 CB 10              1596 	rl	b
   0704 CB 21              1597 	sla	c
   0706 CB 10              1598 	rl	b
   0708 09                 1599 	add	hl,bc
   0709 01r00s00           1600 	ld	bc,#_GHOSTGAMEZONE_LEVEL3
   070C 09                 1601 	add	hl,bc
   070D 6E                 1602 	ld	l, (hl)
   070E 18 51              1603 	jr	00110$
   0710                    1604 00105$:
                           1605 ;main.c:604: if (currentAbsoluteLevel==2) 
   0710 3Ar98s00           1606 	ld	a,(#_currentAbsoluteLevel + 0)
   0713 D6 02              1607 	sub	a,#0x02
   0715 20 26              1608 	jr	NZ,00102$
                           1609 ;main.c:606: return GHOSTGAMEZONE_LEVEL2[x+(y<<5)];
   0717 DD 6E 04           1610 	ld	l,4 (ix)
   071A 26 00              1611 	ld	h,#0x00
   071C DD 4E 05           1612 	ld	c,5 (ix)
   071F 06 00              1613 	ld	b,#0x00
   0721 CB 21              1614 	sla	c
   0723 CB 10              1615 	rl	b
   0725 CB 21              1616 	sla	c
   0727 CB 10              1617 	rl	b
   0729 CB 21              1618 	sla	c
   072B CB 10              1619 	rl	b
   072D CB 21              1620 	sla	c
   072F CB 10              1621 	rl	b
   0731 CB 21              1622 	sla	c
   0733 CB 10              1623 	rl	b
   0735 09                 1624 	add	hl,bc
   0736 01r00s00           1625 	ld	bc,#_GHOSTGAMEZONE_LEVEL2
   0739 09                 1626 	add	hl,bc
   073A 6E                 1627 	ld	l, (hl)
   073B 18 24              1628 	jr	00110$
   073D                    1629 00102$:
                           1630 ;main.c:609: return GHOSTGAMEZONE[x+(y<<5)];
   073D DD 6E 04           1631 	ld	l,4 (ix)
   0740 26 00              1632 	ld	h,#0x00
   0742 DD 4E 05           1633 	ld	c,5 (ix)
   0745 06 00              1634 	ld	b,#0x00
   0747 CB 21              1635 	sla	c
   0749 CB 10              1636 	rl	b
   074B CB 21              1637 	sla	c
   074D CB 10              1638 	rl	b
   074F CB 21              1639 	sla	c
   0751 CB 10              1640 	rl	b
   0753 CB 21              1641 	sla	c
   0755 CB 10              1642 	rl	b
   0757 CB 21              1643 	sla	c
   0759 CB 10              1644 	rl	b
   075B 09                 1645 	add	hl,bc
   075C 01r00s00           1646 	ld	bc,#_GHOSTGAMEZONE
   075F 09                 1647 	add	hl,bc
   0760 6E                 1648 	ld	l, (hl)
   0761                    1649 00110$:
   0761 DD E1              1650 	pop	ix
   0763 C9                 1651 	ret
   0764                    1652 _peekGhostGameZone_end::
                           1653 ;main.c:614: void initAutoDoor(void)
                           1654 ;	---------------------------------
                           1655 ; Function initAutoDoor
                           1656 ; ---------------------------------
   0764                    1657 _initAutoDoor_start::
   0764                    1658 _initAutoDoor:
                           1659 ;main.c:617: s_autoDoors *d0 = &autoDoors[0];
                           1660 ;main.c:618: s_autoDoors *d1 = &autoDoors[1];
                           1661 ;main.c:619: s_autoDoors *d2 = &autoDoors[2];
                           1662 ;main.c:620: s_autoDoors *d3 = &autoDoors[3];
                           1663 ;main.c:622: byte *d0_cx = &d0->cx;
                           1664 ;main.c:623: byte *d0_cy = &d0->cy;
                           1665 ;main.c:624: byte *d0_px = &d0->px;
                           1666 ;main.c:625: byte *d0_py = &d0->py;
                           1667 ;main.c:627: byte *d1_cx = &d1->cx;
                           1668 ;main.c:628: byte *d1_cy = &d1->cy;
                           1669 ;main.c:629: byte *d1_px = &d1->px;
                           1670 ;main.c:630: byte *d1_py = &d1->py;
                           1671 ;main.c:632: byte *d2_cx = &d2->cx;
                           1672 ;main.c:633: byte *d2_cy = &d2->cy;
                           1673 ;main.c:634: byte *d2_px = &d2->px;
                           1674 ;main.c:635: byte *d2_py = &d2->py;
                           1675 ;main.c:637: byte *d3_cx = &d3->cx;
                           1676 ;main.c:638: byte *d3_cy = &d3->cy;
                           1677 ;main.c:639: byte *d3_px = &d3->px;
                           1678 ;main.c:640: byte *d3_py = &d3->py;
                           1679 ;main.c:642: h = rnd_byte(0,2);
   0764 21 00 02           1680 	ld	hl,#0x0200
   0767 E5                 1681 	push	hl
   0768 CDr00s00           1682 	call	_rnd_byte
   076B F1                 1683 	pop	af
   076C 4D                 1684 	ld	c,l
                           1685 ;main.c:643: autoDoorTimer=0;
   076D FD 21r8Fs00        1686 	ld	iy,#_autoDoorTimer
   0771 FD 36 00 00        1687 	ld	0 (iy),#0x00
   0775 FD 36 01 00        1688 	ld	1 (iy),#0x00
                           1689 ;main.c:644: autoDoorCurrentMove=0;
   0779 FD 21r93s00        1690 	ld	iy,#_autoDoorCurrentMove
   077D FD 36 00 00        1691 	ld	0 (iy),#0x00
   0781 FD 36 01 00        1692 	ld	1 (iy),#0x00
                           1693 ;main.c:645: autoDoorCurrentGfx=0;
   0785 21r80s00           1694 	ld	hl,#_autoDoorCurrentGfx + 0
   0788 36 00              1695 	ld	(hl), #0x00
                           1696 ;main.c:647: if (h==0)
   078A AF                 1697 	xor	a,a
   078B B1                 1698 	or	a,c
   078C 20 3F              1699 	jr	NZ,00105$
                           1700 ;main.c:649: (*d0_cx) = 9;						// Dmarrage de la porte
   078E 21r70s00           1701 	ld	hl,#_autoDoors
   0791 36 09              1702 	ld	(hl),#0x09
                           1703 ;main.c:650: (*d0_cy) = 8;
   0793 21r71s00           1704 	ld	hl,#0x0001 + _autoDoors
   0796 36 08              1705 	ld	(hl),#0x08
                           1706 ;main.c:651: (*d0_px) = 72;						// Dmarrage de la porte
   0798 23                 1707 	inc	hl
   0799 36 48              1708 	ld	(hl),#0x48
                           1709 ;main.c:652: (*d0_py) = 64;
   079B 23                 1710 	inc	hl
   079C 36 40              1711 	ld	(hl),#0x40
                           1712 ;main.c:654: (*d1_cx) = 13;
   079E 23                 1713 	inc	hl
   079F 36 0D              1714 	ld	(hl),#0x0D
                           1715 ;main.c:655: (*d1_cy) = 12;
   07A1 21r75s00           1716 	ld	hl,#0x0001 + 0x0004 + _autoDoors
   07A4 36 0C              1717 	ld	(hl),#0x0C
                           1718 ;main.c:656: (*d1_px) = 104;
   07A6 23                 1719 	inc	hl
   07A7 36 68              1720 	ld	(hl),#0x68
                           1721 ;main.c:657: (*d1_py) = 96;
   07A9 23                 1722 	inc	hl
   07AA 36 60              1723 	ld	(hl),#0x60
                           1724 ;main.c:660: (*d2_cx) = 17;
   07AC 21r78s00           1725 	ld	hl,#0x0008 + _autoDoors
   07AF 36 11              1726 	ld	(hl),#0x11
                           1727 ;main.c:661: (*d2_cy) = 12;
   07B1 21r79s00           1728 	ld	hl,#0x0001 + 0x0008 + _autoDoors
   07B4 36 0C              1729 	ld	(hl),#0x0C
                           1730 ;main.c:662: (*d2_px) = 136;
   07B6 23                 1731 	inc	hl
   07B7 36 88              1732 	ld	(hl),#0x88
                           1733 ;main.c:663: (*d2_py) = 96;
   07B9 23                 1734 	inc	hl
   07BA 36 60              1735 	ld	(hl),#0x60
                           1736 ;main.c:666: (*d3_cx) = 17;
   07BC 21r7Cs00           1737 	ld	hl,#0x000c + _autoDoors
   07BF 36 11              1738 	ld	(hl),#0x11
                           1739 ;main.c:667: (*d3_cy) = 16;
   07C1 21r7Ds00           1740 	ld	hl,#0x0001 + 0x000c + _autoDoors
   07C4 36 10              1741 	ld	(hl),#0x10
                           1742 ;main.c:668: (*d3_px) = 136;
   07C6 23                 1743 	inc	hl
   07C7 36 88              1744 	ld	(hl),#0x88
                           1745 ;main.c:669: (*d3_py) = 128;
   07C9 23                 1746 	inc	hl
   07CA 36 80              1747 	ld	(hl),#0x80
   07CC C9                 1748 	ret
   07CD                    1749 00105$:
                           1750 ;main.c:672: if (h==1)
   07CD 79                 1751 	ld	a,c
   07CE D6 01              1752 	sub	a,#0x01
   07D0 20 3F              1753 	jr	NZ,00102$
                           1754 ;main.c:674: (*d0_cx) = 9;						// Dmarrage de la porte
   07D2 21r70s00           1755 	ld	hl,#_autoDoors
   07D5 36 09              1756 	ld	(hl),#0x09
                           1757 ;main.c:675: (*d0_cy) = 12;
   07D7 21r71s00           1758 	ld	hl,#0x0001 + _autoDoors
   07DA 36 0C              1759 	ld	(hl),#0x0C
                           1760 ;main.c:676: (*d0_px) = 72;						// Dmarrage de la porte
   07DC 23                 1761 	inc	hl
   07DD 36 48              1762 	ld	(hl),#0x48
                           1763 ;main.c:677: (*d0_py) = 96;
   07DF 23                 1764 	inc	hl
   07E0 36 60              1765 	ld	(hl),#0x60
                           1766 ;main.c:679: (*d1_cx) = 13;
   07E2 23                 1767 	inc	hl
   07E3 36 0D              1768 	ld	(hl),#0x0D
                           1769 ;main.c:680: (*d1_cy) = 12;
   07E5 21r75s00           1770 	ld	hl,#0x0001 + 0x0004 + _autoDoors
   07E8 36 0C              1771 	ld	(hl),#0x0C
                           1772 ;main.c:681: (*d1_px) = 104;
   07EA 23                 1773 	inc	hl
   07EB 36 68              1774 	ld	(hl),#0x68
                           1775 ;main.c:682: (*d1_py) = 96;
   07ED 23                 1776 	inc	hl
   07EE 36 60              1777 	ld	(hl),#0x60
                           1778 ;main.c:685: (*d2_cx) = 17;
   07F0 21r78s00           1779 	ld	hl,#0x0008 + _autoDoors
   07F3 36 11              1780 	ld	(hl),#0x11
                           1781 ;main.c:686: (*d2_cy) = 12;
   07F5 21r79s00           1782 	ld	hl,#0x0001 + 0x0008 + _autoDoors
   07F8 36 0C              1783 	ld	(hl),#0x0C
                           1784 ;main.c:687: (*d2_px) = 136;
   07FA 23                 1785 	inc	hl
   07FB 36 88              1786 	ld	(hl),#0x88
                           1787 ;main.c:688: (*d2_py) = 96;
   07FD 23                 1788 	inc	hl
   07FE 36 60              1789 	ld	(hl),#0x60
                           1790 ;main.c:691: (*d3_cx) = 21;
   0800 21r7Cs00           1791 	ld	hl,#0x000c + _autoDoors
   0803 36 15              1792 	ld	(hl),#0x15
                           1793 ;main.c:692: (*d3_cy) = 12;
   0805 21r7Ds00           1794 	ld	hl,#0x0001 + 0x000c + _autoDoors
   0808 36 0C              1795 	ld	(hl),#0x0C
                           1796 ;main.c:693: (*d3_px) = 252;
   080A 23                 1797 	inc	hl
   080B 36 FC              1798 	ld	(hl),#0xFC
                           1799 ;main.c:694: (*d3_py) = 96;
   080D 23                 1800 	inc	hl
   080E 36 60              1801 	ld	(hl),#0x60
   0810 C9                 1802 	ret
   0811                    1803 00102$:
                           1804 ;main.c:698: (*d0_cx) = 5;						// Dmarrage de la porte
   0811 21r70s00           1805 	ld	hl,#_autoDoors
   0814 36 05              1806 	ld	(hl),#0x05
                           1807 ;main.c:699: (*d0_cy) = 12;
   0816 21r71s00           1808 	ld	hl,#0x0001 + _autoDoors
   0819 36 0C              1809 	ld	(hl),#0x0C
                           1810 ;main.c:700: (*d0_px) = 40;						// Dmarrage de la porte
   081B 23                 1811 	inc	hl
   081C 36 28              1812 	ld	(hl),#0x28
                           1813 ;main.c:701: (*d0_py) = 96;
   081E 23                 1814 	inc	hl
   081F 36 60              1815 	ld	(hl),#0x60
                           1816 ;main.c:703: (*d1_cx) = 13;
   0821 23                 1817 	inc	hl
   0822 36 0D              1818 	ld	(hl),#0x0D
                           1819 ;main.c:704: (*d1_cy) = 12;
   0824 21r75s00           1820 	ld	hl,#0x0001 + 0x0004 + _autoDoors
   0827 36 0C              1821 	ld	(hl),#0x0C
                           1822 ;main.c:705: (*d1_px) = 104;
   0829 23                 1823 	inc	hl
   082A 36 68              1824 	ld	(hl),#0x68
                           1825 ;main.c:706: (*d1_py) = 96;
   082C 23                 1826 	inc	hl
   082D 36 60              1827 	ld	(hl),#0x60
                           1828 ;main.c:709: (*d2_cx) = 17;
   082F 21r78s00           1829 	ld	hl,#0x0008 + _autoDoors
   0832 36 11              1830 	ld	(hl),#0x11
                           1831 ;main.c:710: (*d2_cy) = 12;
   0834 21r79s00           1832 	ld	hl,#0x0001 + 0x0008 + _autoDoors
   0837 36 0C              1833 	ld	(hl),#0x0C
                           1834 ;main.c:711: (*d2_px) = 136;
   0839 23                 1835 	inc	hl
   083A 36 88              1836 	ld	(hl),#0x88
                           1837 ;main.c:712: (*d2_py) = 96;
   083C 23                 1838 	inc	hl
   083D 36 60              1839 	ld	(hl),#0x60
                           1840 ;main.c:715: (*d3_cx) = 25;
   083F 21r7Cs00           1841 	ld	hl,#0x000c + _autoDoors
   0842 36 19              1842 	ld	(hl),#0x19
                           1843 ;main.c:716: (*d3_cy) = 12;
   0844 21r7Ds00           1844 	ld	hl,#0x0001 + 0x000c + _autoDoors
   0847 36 0C              1845 	ld	(hl),#0x0C
                           1846 ;main.c:717: (*d3_px) = 200;
   0849 23                 1847 	inc	hl
   084A 36 C8              1848 	ld	(hl),#0xC8
                           1849 ;main.c:718: (*d3_py) = 96;	
   084C 23                 1850 	inc	hl
   084D 36 60              1851 	ld	(hl),#0x60
   084F C9                 1852 	ret
   0850                    1853 _initAutoDoor_end::
                           1854 ;main.c:723: void renderAutoDoor(void)
                           1855 ;	---------------------------------
                           1856 ; Function renderAutoDoor
                           1857 ; ---------------------------------
   0850                    1858 _renderAutoDoor_start::
   0850                    1859 _renderAutoDoor:
                           1860 ;main.c:725: s_autoDoors *d0 = &autoDoors[0];
                           1861 ;main.c:726: s_autoDoors *d1 = &autoDoors[1];
                           1862 ;main.c:727: s_autoDoors *d2 = &autoDoors[2];
                           1863 ;main.c:728: s_autoDoors *d3 = &autoDoors[3];
                           1864 ;main.c:730: byte *d0_cx = &d0->cx;
                           1865 ;main.c:731: byte *d0_cy = &d0->cy;
                           1866 ;main.c:733: byte *d1_cx = &d1->cx;
                           1867 ;main.c:734: byte *d1_cy = &d1->cy;
                           1868 ;main.c:736: byte *d2_cx = &d2->cx;
                           1869 ;main.c:737: byte *d2_cy = &d2->cy;
                           1870 ;main.c:739: byte *d3_cx = &d3->cx;
                           1871 ;main.c:740: byte *d3_cy = &d3->cy;
                           1872 ;main.c:742: if (autoDoorTimer==0) // On va avancer les portes
   0850 FD 21r8Fs00        1873 	ld	iy,#_autoDoorTimer
   0854 FD 7E 00           1874 	ld	a,0 (iy)
   0857 FD B6 01           1875 	or	a,1 (iy)
   085A C0                 1876 	ret	NZ
                           1877 ;main.c:744: disable_nmi();
   085B CDr00s00           1878 	call	_disable_nmi
                           1879 ;main.c:745: put_frame(&gfxAutoDoor[autoDoorCurrentGfx],(*d0_cx),(*d0_cy),2,1);	
   085E 21r71s00           1880 	ld	hl,#0x0001 + _autoDoors
   0861 4E                 1881 	ld	c,(hl)
   0862 21r70s00           1882 	ld	hl,#_autoDoors
   0865 46                 1883 	ld	b,(hl)
   0866 3Ar80s00           1884 	ld	a,(#_autoDoorCurrentGfx + 0)
   0869 87                 1885 	add	a,a
   086A C6r68              1886 	add	a,#<(_gfxAutoDoor)
   086C 5F                 1887 	ld	e,a
   086D 3Es00              1888 	ld	a,#>(_gfxAutoDoor)
   086F CE 00              1889 	adc	a,#0x00
   0871 57                 1890 	ld	d,a
   0872 21 02 01           1891 	ld	hl,#0x0102
   0875 E5                 1892 	push	hl
   0876 79                 1893 	ld	a,c
   0877 F5                 1894 	push	af
   0878 33                 1895 	inc	sp
   0879 C5                 1896 	push	bc
   087A 33                 1897 	inc	sp
   087B D5                 1898 	push	de
   087C CDr00s00           1899 	call	_put_frame
   087F F1                 1900 	pop	af
   0880 F1                 1901 	pop	af
   0881 F1                 1902 	pop	af
                           1903 ;main.c:746: put_frame(&gfxAutoDoor[autoDoorCurrentGfx],(*d1_cx),(*d1_cy),2,1);	
   0882 21r75s00           1904 	ld	hl,#0x0001 + 0x0004 + _autoDoors
   0885 4E                 1905 	ld	c,(hl)
   0886 21r74s00           1906 	ld	hl,#0x0004 + _autoDoors
   0889 46                 1907 	ld	b,(hl)
   088A 3Ar80s00           1908 	ld	a,(#_autoDoorCurrentGfx + 0)
   088D 87                 1909 	add	a,a
   088E C6r68              1910 	add	a,#<(_gfxAutoDoor)
   0890 5F                 1911 	ld	e,a
   0891 3Es00              1912 	ld	a,#>(_gfxAutoDoor)
   0893 CE 00              1913 	adc	a,#0x00
   0895 57                 1914 	ld	d,a
   0896 21 02 01           1915 	ld	hl,#0x0102
   0899 E5                 1916 	push	hl
   089A 79                 1917 	ld	a,c
   089B F5                 1918 	push	af
   089C 33                 1919 	inc	sp
   089D C5                 1920 	push	bc
   089E 33                 1921 	inc	sp
   089F D5                 1922 	push	de
   08A0 CDr00s00           1923 	call	_put_frame
   08A3 F1                 1924 	pop	af
   08A4 F1                 1925 	pop	af
   08A5 F1                 1926 	pop	af
                           1927 ;main.c:747: put_frame(&gfxAutoDoor[autoDoorCurrentGfx],(*d2_cx),(*d2_cy),2,1);	
   08A6 21r79s00           1928 	ld	hl,#0x0001 + 0x0008 + _autoDoors
   08A9 4E                 1929 	ld	c,(hl)
   08AA 21r78s00           1930 	ld	hl,#0x0008 + _autoDoors
   08AD 46                 1931 	ld	b,(hl)
   08AE 3Ar80s00           1932 	ld	a,(#_autoDoorCurrentGfx + 0)
   08B1 87                 1933 	add	a,a
   08B2 C6r68              1934 	add	a,#<(_gfxAutoDoor)
   08B4 5F                 1935 	ld	e,a
   08B5 3Es00              1936 	ld	a,#>(_gfxAutoDoor)
   08B7 CE 00              1937 	adc	a,#0x00
   08B9 57                 1938 	ld	d,a
   08BA 21 02 01           1939 	ld	hl,#0x0102
   08BD E5                 1940 	push	hl
   08BE 79                 1941 	ld	a,c
   08BF F5                 1942 	push	af
   08C0 33                 1943 	inc	sp
   08C1 C5                 1944 	push	bc
   08C2 33                 1945 	inc	sp
   08C3 D5                 1946 	push	de
   08C4 CDr00s00           1947 	call	_put_frame
   08C7 F1                 1948 	pop	af
   08C8 F1                 1949 	pop	af
   08C9 F1                 1950 	pop	af
                           1951 ;main.c:748: put_frame(&gfxAutoDoor[autoDoorCurrentGfx],(*d3_cx),(*d3_cy),2,1);
   08CA 21r7Ds00           1952 	ld	hl,#0x0001 + 0x000c + _autoDoors
   08CD 4E                 1953 	ld	c,(hl)
   08CE 21r7Cs00           1954 	ld	hl,#0x000c + _autoDoors
   08D1 46                 1955 	ld	b,(hl)
   08D2 3Ar80s00           1956 	ld	a,(#_autoDoorCurrentGfx + 0)
   08D5 87                 1957 	add	a,a
   08D6 C6r68              1958 	add	a,#<(_gfxAutoDoor)
   08D8 5F                 1959 	ld	e,a
   08D9 3Es00              1960 	ld	a,#>(_gfxAutoDoor)
   08DB CE 00              1961 	adc	a,#0x00
   08DD 57                 1962 	ld	d,a
   08DE 21 02 01           1963 	ld	hl,#0x0102
   08E1 E5                 1964 	push	hl
   08E2 79                 1965 	ld	a,c
   08E3 F5                 1966 	push	af
   08E4 33                 1967 	inc	sp
   08E5 C5                 1968 	push	bc
   08E6 33                 1969 	inc	sp
   08E7 D5                 1970 	push	de
   08E8 CDr00s00           1971 	call	_put_frame
   08EB F1                 1972 	pop	af
   08EC F1                 1973 	pop	af
   08ED F1                 1974 	pop	af
                           1975 ;main.c:749: enable_nmi();
   08EE CDr00s00           1976 	call	_enable_nmi
                           1977 ;main.c:751: if (autoDoorCurrentGfx<17) autoDoorCurrentGfx++; else {autoDoorCurrentGfx=0;initAutoDoor();}
   08F1 FD 21r80s00        1978 	ld	iy,#_autoDoorCurrentGfx
   08F5 FD 7E 00           1979 	ld	a,0 (iy)
   08F8 D6 11              1980 	sub	a,#0x11
   08FA 30 05              1981 	jr	NC,00102$
   08FC FD 34 00           1982 	inc	0 (iy)
   08FF 18 08              1983 	jr	00103$
   0901                    1984 00102$:
   0901 21r80s00           1985 	ld	hl,#_autoDoorCurrentGfx + 0
   0904 36 00              1986 	ld	(hl), #0x00
   0906 CDr64s07           1987 	call	_initAutoDoor
   0909                    1988 00103$:
                           1989 ;main.c:753: autoDoorTimer = 10;
   0909 FD 21r8Fs00        1990 	ld	iy,#_autoDoorTimer
   090D FD 36 00 0A        1991 	ld	0 (iy),#0x0A
   0911 FD 36 01 00        1992 	ld	1 (iy),#0x00
   0915 C9                 1993 	ret
   0916                    1994 _renderAutoDoor_end::
                           1995 ;main.c:759: byte isPlayerDirectionFree(char direction)
                           1996 ;	---------------------------------
                           1997 ; Function isPlayerDirectionFree
                           1998 ; ---------------------------------
   0916                    1999 _isPlayerDirectionFree_start::
   0916                    2000 _isPlayerDirectionFree:
   0916 DD E5              2001 	push	ix
   0918 DD 21 00 00        2002 	ld	ix,#0
   091C DD 39              2003 	add	ix,sp
   091E 21 F2 FF           2004 	ld	hl,#-14
   0921 39                 2005 	add	hl,sp
   0922 F9                 2006 	ld	sp,hl
                           2007 ;main.c:766: s_autoDoors *d0 = &autoDoors[0];
                           2008 ;main.c:767: s_autoDoors *d1 = &autoDoors[1];
                           2009 ;main.c:768: s_autoDoors *d2 = &autoDoors[2];
                           2010 ;main.c:769: s_autoDoors *d3 = &autoDoors[3];
                           2011 ;main.c:771: byte *d0_cx = &d0->cx;
                           2012 ;main.c:772: byte *d0_cy = &d0->cy;
                           2013 ;main.c:774: byte *d1_cx = &d1->cx;
                           2014 ;main.c:775: byte *d1_cy = &d1->cy;
                           2015 ;main.c:777: byte *d2_cx = &d2->cx;
                           2016 ;main.c:778: byte *d2_cy = &d2->cy;
                           2017 ;main.c:780: byte *d3_cx = &d3->cx;
                           2018 ;main.c:781: byte *d3_cy = &d3->cy;
                           2019 ;main.c:783: s_playerDoors *pd0 = &playerDoors[0];
                           2020 ;main.c:784: s_playerDoors *pd1 = &playerDoors[1];
                           2021 ;main.c:786: byte *pd0_affiche = &pd0->affiche;
                           2022 ;main.c:787: byte *pd0_c1x = &pd0->c1x;
                           2023 ;main.c:788: byte *pd0_c1y = &pd0->c1y;
                           2024 ;main.c:789: byte *pd0_c2x = &pd0->c2x;
                           2025 ;main.c:790: byte *pd0_c2y = &pd0->c2y;
                           2026 ;main.c:791: byte *pd0_doorGlobalPxStart = &pd0->doorGlobalPxStart;
                           2027 ;main.c:792: byte *pd0_doorGlobalPyStart = &pd0->doorGlobalPyStart;
                           2028 ;main.c:793: byte *pd0_doorGlobalHauteur = &pd0->doorGlobalHauteur;
                           2029 ;main.c:794: byte *pd0_doorGlobalLargeur = &pd0->doorGlobalLargeur;
                           2030 ;main.c:796: byte *pd1_affiche = &pd1->affiche;
                           2031 ;main.c:797: byte *pd1_c1x = &pd1->c1x;
                           2032 ;main.c:798: byte *pd1_c1y = &pd1->c1y;
                           2033 ;main.c:799: byte *pd1_c2x = &pd1->c2x;
                           2034 ;main.c:800: byte *pd1_c2y = &pd1->c2y;
                           2035 ;main.c:801: byte *pd1_doorGlobalPxStart = &pd1->doorGlobalPxStart;
                           2036 ;main.c:802: byte *pd1_doorGlobalPyStart = &pd1->doorGlobalPyStart;
                           2037 ;main.c:803: byte *pd1_doorGlobalHauteur = &pd1->doorGlobalHauteur;
                           2038 ;main.c:804: byte *pd1_doorGlobalLargeur = &pd1->doorGlobalLargeur;
                           2039 ;main.c:807: tx3=ty3=tx1=tx2=ty1=ty2=tx1Center=tx2Center=ty1Center=ty2Center=0;
   0923 DD 36 F5 00        2040 	ld	-11 (ix),#0x00
   0927 DD 36 F7 00        2041 	ld	-9 (ix),#0x00
   092B DD 36 F6 00        2042 	ld	-10 (ix),#0x00
   092F DD 36 F8 00        2043 	ld	-8 (ix),#0x00
   0933 DD 36 FC 00        2044 	ld	-4 (ix),#0x00
   0937 DD 36 FE 00        2045 	ld	-2 (ix),#0x00
   093B DD 36 FD 00        2046 	ld	-3 (ix),#0x00
   093F DD 36 FF 00        2047 	ld	-1 (ix),#0x00
   0943 DD 36 F9 00        2048 	ld	-7 (ix),#0x00
   0947 DD 36 FA 00        2049 	ld	-6 (ix),#0x00
                           2050 ;main.c:809: res = NOK;
   094B DD 36 FB 01        2051 	ld	-5 (ix),#0x01
                           2052 ;main.c:812: if (direction==DROITE)
   094F DD 7E 04           2053 	ld	a,4 (ix)
   0952 D6 03              2054 	sub	a,#0x03
   0954 20 7B              2055 	jr	NZ,00110$
                           2056 ;main.c:814: tx1 = (player.px+16) >> 3;
   0956 3Ar02s00           2057 	ld	a,(#_player)
   0959 26 00              2058 	ld	h, #0x00
   095B C6 10              2059 	add	a,#0x10
   095D 4F                 2060 	ld	c,a
   095E 7C                 2061 	ld	a,h
   095F CE 00              2062 	adc	a,#0x00
   0961 67                 2063 	ld	h, a
   0962 69                 2064 	ld	l, c
   0963 CB 2C              2065 	sra	h
   0965 CB 1D              2066 	rr	l
   0967 CB 2C              2067 	sra	h
   0969 CB 1D              2068 	rr	l
   096B CB 2C              2069 	sra	h
   096D CB 1D              2070 	rr	l
   096F DD 75 FF           2071 	ld	-1 (ix),l
                           2072 ;main.c:815: ty1 = (player.py) >> 3;
   0972 21r03s00           2073 	ld	hl,#0x0001 + _player
   0975 4E                 2074 	ld	c,(hl)
   0976 41                 2075 	ld	b,c
   0977 CB 38              2076 	srl	b
   0979 CB 38              2077 	srl	b
   097B CB 38              2078 	srl	b
   097D DD 70 FE           2079 	ld	-2 (ix),b
                           2080 ;main.c:816: tx2 = (player.px+16) >> 3;
   0980 3Ar02s00           2081 	ld	a,(#_player)
   0983 DD 77 F4           2082 	ld	-12 (ix), a
   0986 26 00              2083 	ld	h, #0x00
   0988 C6 10              2084 	add	a,#0x10
   098A 5F                 2085 	ld	e,a
   098B 7C                 2086 	ld	a,h
   098C CE 00              2087 	adc	a,#0x00
   098E 67                 2088 	ld	h, a
   098F 6B                 2089 	ld	l, e
   0990 CB 2C              2090 	sra	h
   0992 CB 1D              2091 	rr	l
   0994 CB 2C              2092 	sra	h
   0996 CB 1D              2093 	rr	l
   0998 CB 2C              2094 	sra	h
   099A CB 1D              2095 	rr	l
   099C DD 75 FD           2096 	ld	-3 (ix),l
                           2097 ;main.c:817: ty2 = (player.py+15) >> 3;
   099F 79                 2098 	ld	a, c
   09A0 26 00              2099 	ld	h, #0x00
   09A2 C6 0F              2100 	add	a,#0x0F
   09A4 5F                 2101 	ld	e,a
   09A5 7C                 2102 	ld	a,h
   09A6 CE 00              2103 	adc	a,#0x00
   09A8 67                 2104 	ld	h, a
   09A9 6B                 2105 	ld	l, e
   09AA CB 2C              2106 	sra	h
   09AC CB 1D              2107 	rr	l
   09AE CB 2C              2108 	sra	h
   09B0 CB 1D              2109 	rr	l
   09B2 CB 2C              2110 	sra	h
   09B4 CB 1D              2111 	rr	l
   09B6 DD 75 FC           2112 	ld	-4 (ix),l
                           2113 ;main.c:819: tx1Center = (player.px) >> 3;
   09B9 DD 4E F4           2114 	ld	c,-12 (ix)
   09BC CB 39              2115 	srl	c
   09BE CB 39              2116 	srl	c
   09C0 CB 39              2117 	srl	c
   09C2 DD 71 F8           2118 	ld	-8 (ix),c
                           2119 ;main.c:820: ty1Center = (player.py) >> 3;
   09C5 DD 70 F7           2120 	ld	-9 (ix),b
                           2121 ;main.c:821: tx2Center = (player.px) >> 3;
   09C8 DD 71 F6           2122 	ld	-10 (ix),c
                           2123 ;main.c:822: ty2Center = (player.py+15) >> 3;	
   09CB DD 75 F5           2124 	ld	-11 (ix),l
   09CE C3r69s0B           2125 	jp	00111$
   09D1                    2126 00110$:
                           2127 ;main.c:825: if (direction==GAUCHE)
   09D1 DD 7E 04           2128 	ld	a,4 (ix)
   09D4 D6 02              2129 	sub	a,#0x02
   09D6 20 7C              2130 	jr	NZ,00107$
                           2131 ;main.c:827: tx1 = (player.px-1) >> 3;
   09D8 21r02s00           2132 	ld	hl,#_player
   09DB 6E                 2133 	ld	l,(hl)
   09DC 26 00              2134 	ld	h,#0x00
   09DE 2B                 2135 	dec	hl
   09DF CB 2C              2136 	sra	h
   09E1 CB 1D              2137 	rr	l
   09E3 CB 2C              2138 	sra	h
   09E5 CB 1D              2139 	rr	l
   09E7 CB 2C              2140 	sra	h
   09E9 CB 1D              2141 	rr	l
   09EB DD 75 FF           2142 	ld	-1 (ix),l
                           2143 ;main.c:828: ty1 = (player.py) >> 3;
   09EE 21r03s00           2144 	ld	hl,#0x0001 + _player
   09F1 4E                 2145 	ld	c,(hl)
   09F2 79                 2146 	ld	a,c
   09F3 CB 3F              2147 	srl	a
   09F5 CB 3F              2148 	srl	a
   09F7 CB 3F              2149 	srl	a
   09F9 DD 77 F3           2150 	ld	-13 (ix), a
   09FC DD 77 FE           2151 	ld	-2 (ix),a
                           2152 ;main.c:829: tx2 = (player.px-1) >> 3;
   09FF 21r02s00           2153 	ld	hl,#_player
   0A02 5E                 2154 	ld	e, (hl)
   0A03 16 00              2155 	ld	d,#0x00
   0A05 6B                 2156 	ld	l,e
   0A06 62                 2157 	ld	h,d
   0A07 2B                 2158 	dec	hl
   0A08 CB 2C              2159 	sra	h
   0A0A CB 1D              2160 	rr	l
   0A0C CB 2C              2161 	sra	h
   0A0E CB 1D              2162 	rr	l
   0A10 CB 2C              2163 	sra	h
   0A12 CB 1D              2164 	rr	l
   0A14 DD 75 FD           2165 	ld	-3 (ix),l
                           2166 ;main.c:830: ty2 = (player.py+15) >> 3;
   0A17 79                 2167 	ld	a, c
   0A18 26 00              2168 	ld	h, #0x00
   0A1A C6 0F              2169 	add	a,#0x0F
   0A1C 4F                 2170 	ld	c,a
   0A1D 7C                 2171 	ld	a,h
   0A1E CE 00              2172 	adc	a,#0x00
   0A20 67                 2173 	ld	h, a
   0A21 69                 2174 	ld	l, c
   0A22 CB 2C              2175 	sra	h
   0A24 CB 1D              2176 	rr	l
   0A26 CB 2C              2177 	sra	h
   0A28 CB 1D              2178 	rr	l
   0A2A CB 2C              2179 	sra	h
   0A2C CB 1D              2180 	rr	l
   0A2E 4D                 2181 	ld	c,l
   0A2F DD 71 FC           2182 	ld	-4 (ix),c
                           2183 ;main.c:832: tx1Center = (player.px+15) >> 3;
   0A32 21 0F 00           2184 	ld	hl,#0x000F
   0A35 19                 2185 	add	hl,de
   0A36 CB 2C              2186 	sra	h
   0A38 CB 1D              2187 	rr	l
   0A3A CB 2C              2188 	sra	h
   0A3C CB 1D              2189 	rr	l
   0A3E CB 2C              2190 	sra	h
   0A40 CB 1D              2191 	rr	l
   0A42 DD 75 F8           2192 	ld	-8 (ix),l
                           2193 ;main.c:833: ty1Center = (player.py) >> 3;
   0A45 DD 7E F3           2194 	ld	a,-13 (ix)
   0A48 DD 77 F7           2195 	ld	-9 (ix),a
                           2196 ;main.c:834: tx2Center = (player.px+15) >> 3;
   0A4B DD 75 F6           2197 	ld	-10 (ix),l
                           2198 ;main.c:835: ty2Center = (player.py+15) >> 3;	
   0A4E DD 71 F5           2199 	ld	-11 (ix),c
   0A51 C3r69s0B           2200 	jp	00111$
   0A54                    2201 00107$:
                           2202 ;main.c:838: if (direction==BAS)
   0A54 DD 7E 04           2203 	ld	a,4 (ix)
   0A57 D6 01              2204 	sub	a,#0x01
   0A59 20 77              2205 	jr	NZ,00104$
                           2206 ;main.c:840: tx1 = (player.px) >> 3;
   0A5B 3Ar02s00           2207 	ld	a,(#_player)
   0A5E CB 3F              2208 	srl	a
   0A60 CB 3F              2209 	srl	a
   0A62 CB 3F              2210 	srl	a
   0A64 DD 77 FF           2211 	ld	-1 (ix),a
                           2212 ;main.c:841: ty1 = (player.py+16) >> 3;
   0A67 21r03s00           2213 	ld	hl,#0x0001 + _player
   0A6A 4E                 2214 	ld	c,(hl)
   0A6B 79                 2215 	ld	a, c
   0A6C 26 00              2216 	ld	h, #0x00
   0A6E C6 10              2217 	add	a,#0x10
   0A70 5F                 2218 	ld	e,a
   0A71 7C                 2219 	ld	a,h
   0A72 CE 00              2220 	adc	a,#0x00
   0A74 67                 2221 	ld	h, a
   0A75 6B                 2222 	ld	l, e
   0A76 CB 2C              2223 	sra	h
   0A78 CB 1D              2224 	rr	l
   0A7A CB 2C              2225 	sra	h
   0A7C CB 1D              2226 	rr	l
   0A7E CB 2C              2227 	sra	h
   0A80 CB 1D              2228 	rr	l
   0A82 45                 2229 	ld	b,l
   0A83 DD 70 FE           2230 	ld	-2 (ix),b
                           2231 ;main.c:842: tx2 = (player.px+15) >> 3;
   0A86 3Ar02s00           2232 	ld	a,(#_player)
   0A89 DD 77 F3           2233 	ld	-13 (ix), a
   0A8C 26 00              2234 	ld	h, #0x00
   0A8E C6 0F              2235 	add	a,#0x0F
   0A90 5F                 2236 	ld	e,a
   0A91 7C                 2237 	ld	a,h
   0A92 CE 00              2238 	adc	a,#0x00
   0A94 67                 2239 	ld	h, a
   0A95 6B                 2240 	ld	l, e
   0A96 CB 2C              2241 	sra	h
   0A98 CB 1D              2242 	rr	l
   0A9A CB 2C              2243 	sra	h
   0A9C CB 1D              2244 	rr	l
   0A9E CB 2C              2245 	sra	h
   0AA0 CB 1D              2246 	rr	l
   0AA2 DD 75 FD           2247 	ld	-3 (ix),l
                           2248 ;main.c:843: ty2 = (player.py+16) >> 3;
   0AA5 DD 70 FC           2249 	ld	-4 (ix),b
                           2250 ;main.c:845: tx3=tx1;
   0AA8 DD 7E FF           2251 	ld	a,-1 (ix)
   0AAB DD 77 FA           2252 	ld	-6 (ix),a
                           2253 ;main.c:846: ty3=ty1;
   0AAE DD 7E FE           2254 	ld	a,-2 (ix)
   0AB1 DD 77 F9           2255 	ld	-7 (ix),a
                           2256 ;main.c:848: tx1Center = (player.px) >> 3;
   0AB4 DD 7E F3           2257 	ld	a,-13 (ix)
   0AB7 CB 3F              2258 	srl	a
   0AB9 CB 3F              2259 	srl	a
   0ABB CB 3F              2260 	srl	a
   0ABD DD 77 F8           2261 	ld	-8 (ix),a
                           2262 ;main.c:849: ty1Center = (player.py) >> 3;
   0AC0 CB 39              2263 	srl	c
   0AC2 CB 39              2264 	srl	c
   0AC4 CB 39              2265 	srl	c
   0AC6 DD 71 F7           2266 	ld	-9 (ix),c
                           2267 ;main.c:850: tx2Center = (player.px+15) >> 3;
   0AC9 DD 75 F6           2268 	ld	-10 (ix),l
                           2269 ;main.c:851: ty2Center = (player.py) >> 3;
   0ACC DD 71 F5           2270 	ld	-11 (ix),c
   0ACF C3r69s0B           2271 	jp	00111$
   0AD2                    2272 00104$:
                           2273 ;main.c:854: if (direction==HAUT)
   0AD2 AF                 2274 	xor	a,a
   0AD3 DD B6 04           2275 	or	a,4 (ix)
   0AD6 C2r69s0B           2276 	jp	NZ,00111$
                           2277 ;main.c:856: tx1 = (player.px) >> 3;
   0AD9 3Ar02s00           2278 	ld	a,(#_player)
   0ADC CB 3F              2279 	srl	a
   0ADE CB 3F              2280 	srl	a
   0AE0 CB 3F              2281 	srl	a
   0AE2 DD 77 FF           2282 	ld	-1 (ix),a
                           2283 ;main.c:857: ty1 = (player.py-1) >> 3;
   0AE5 21r03s00           2284 	ld	hl,#0x0001 + _player
   0AE8 4E                 2285 	ld	c, (hl)
   0AE9 06 00              2286 	ld	b,#0x00
   0AEB 69                 2287 	ld	l,c
   0AEC 60                 2288 	ld	h,b
   0AED 2B                 2289 	dec	hl
   0AEE CB 2C              2290 	sra	h
   0AF0 CB 1D              2291 	rr	l
   0AF2 CB 2C              2292 	sra	h
   0AF4 CB 1D              2293 	rr	l
   0AF6 CB 2C              2294 	sra	h
   0AF8 CB 1D              2295 	rr	l
   0AFA DD 75 F4           2296 	ld	-12 (ix), l
   0AFD DD 75 FE           2297 	ld	-2 (ix), l
                           2298 ;main.c:858: tx2 = (player.px+15) >> 3;
   0B00 3Ar02s00           2299 	ld	a,(#_player)
   0B03 DD 77 F3           2300 	ld	-13 (ix), a
   0B06 26 00              2301 	ld	h, #0x00
   0B08 C6 0F              2302 	add	a,#0x0F
   0B0A 5F                 2303 	ld	e,a
   0B0B 7C                 2304 	ld	a,h
   0B0C CE 00              2305 	adc	a,#0x00
   0B0E 67                 2306 	ld	h, a
   0B0F 6B                 2307 	ld	l, e
   0B10 CB 2C              2308 	sra	h
   0B12 CB 1D              2309 	rr	l
   0B14 CB 2C              2310 	sra	h
   0B16 CB 1D              2311 	rr	l
   0B18 CB 2C              2312 	sra	h
   0B1A CB 1D              2313 	rr	l
   0B1C DD 75 F2           2314 	ld	-14 (ix), l
   0B1F DD 75 FD           2315 	ld	-3 (ix), l
                           2316 ;main.c:859: ty2 = (player.py-1) >> 3;
   0B22 DD 7E F4           2317 	ld	a,-12 (ix)
   0B25 DD 77 FC           2318 	ld	-4 (ix),a
                           2319 ;main.c:861: tx3 = tx1;
   0B28 DD 7E FF           2320 	ld	a,-1 (ix)
   0B2B DD 77 FA           2321 	ld	-6 (ix),a
                           2322 ;main.c:862: ty3 = (player.py+8) >> 3;
   0B2E 21 08 00           2323 	ld	hl,#0x0008
   0B31 09                 2324 	add	hl,bc
   0B32 CB 2C              2325 	sra	h
   0B34 CB 1D              2326 	rr	l
   0B36 CB 2C              2327 	sra	h
   0B38 CB 1D              2328 	rr	l
   0B3A CB 2C              2329 	sra	h
   0B3C CB 1D              2330 	rr	l
   0B3E DD 75 F9           2331 	ld	-7 (ix),l
                           2332 ;main.c:864: tx1Center = (player.px) >> 3;
   0B41 DD 7E F3           2333 	ld	a,-13 (ix)
   0B44 CB 3F              2334 	srl	a
   0B46 CB 3F              2335 	srl	a
   0B48 CB 3F              2336 	srl	a
   0B4A DD 77 F8           2337 	ld	-8 (ix),a
                           2338 ;main.c:865: ty1Center = (player.py+15) >> 3;
   0B4D 21 0F 00           2339 	ld	hl,#0x000F
   0B50 09                 2340 	add	hl,bc
   0B51 CB 2C              2341 	sra	h
   0B53 CB 1D              2342 	rr	l
   0B55 CB 2C              2343 	sra	h
   0B57 CB 1D              2344 	rr	l
   0B59 CB 2C              2345 	sra	h
   0B5B CB 1D              2346 	rr	l
   0B5D DD 75 F7           2347 	ld	-9 (ix),l
                           2348 ;main.c:866: tx2Center = (player.px+15) >> 3;
   0B60 DD 7E F2           2349 	ld	a,-14 (ix)
   0B63 DD 77 F6           2350 	ld	-10 (ix),a
                           2351 ;main.c:867: ty2Center = (player.py+15) >> 3;
   0B66 DD 75 F5           2352 	ld	-11 (ix),l
   0B69                    2353 00111$:
                           2354 ;main.c:870: res1 = peekGhostGameZone(tx1,ty1);
   0B69 DD 66 FE           2355 	ld	h,-2 (ix)
   0B6C DD 6E FF           2356 	ld	l,-1 (ix)
   0B6F E5                 2357 	push	hl
   0B70 CDrADs06           2358 	call	_peekGhostGameZone
   0B73 F1                 2359 	pop	af
   0B74 4D                 2360 	ld	c,l
                           2361 ;main.c:871: res2 = peekGhostGameZone(tx2,ty2);
   0B75 C5                 2362 	push	bc
   0B76 DD 66 FC           2363 	ld	h,-4 (ix)
   0B79 DD 6E FD           2364 	ld	l,-3 (ix)
   0B7C E5                 2365 	push	hl
   0B7D CDrADs06           2366 	call	_peekGhostGameZone
   0B80 F1                 2367 	pop	af
   0B81 C1                 2368 	pop	bc
   0B82 45                 2369 	ld	b,l
                           2370 ;main.c:873: res1Center = peekGhostGameZone(tx1Center,ty1Center);
   0B83 C5                 2371 	push	bc
   0B84 DD 66 F7           2372 	ld	h,-9 (ix)
   0B87 DD 6E F8           2373 	ld	l,-8 (ix)
   0B8A E5                 2374 	push	hl
   0B8B CDrADs06           2375 	call	_peekGhostGameZone
   0B8E F1                 2376 	pop	af
   0B8F C1                 2377 	pop	bc
   0B90 5D                 2378 	ld	e,l
                           2379 ;main.c:874: res2Center = peekGhostGameZone(tx2Center,ty2Center);
   0B91 C5                 2380 	push	bc
   0B92 D5                 2381 	push	de
   0B93 DD 66 F5           2382 	ld	h,-11 (ix)
   0B96 DD 6E F6           2383 	ld	l,-10 (ix)
   0B99 E5                 2384 	push	hl
   0B9A CDrADs06           2385 	call	_peekGhostGameZone
   0B9D F1                 2386 	pop	af
   0B9E D1                 2387 	pop	de
   0B9F C1                 2388 	pop	bc
   0BA0 55                 2389 	ld	d,l
                           2390 ;main.c:876: if ((res1==253) && (res2==253) && (player.doorOpen==OK))
   0BA1 79                 2391 	ld	a,c
   0BA2 D6 FD              2392 	sub	a,#0xFD
   0BA4 20 0F              2393 	jr	NZ,00113$
   0BA6 78                 2394 	ld	a,b
   0BA7 D6 FD              2395 	sub	a,#0xFD
   0BA9 20 0A              2396 	jr	NZ,00113$
   0BAB 3Ar08s00           2397 	ld	a,(#0x0006 + _player)
   0BAE B7                 2398 	or	a,a
   0BAF 20 04              2399 	jr	NZ,00113$
                           2400 ;main.c:878: res = OK;
   0BB1 DD 36 FB 00        2401 	ld	-5 (ix),#0x00
   0BB5                    2402 00113$:
                           2403 ;main.c:881: if ( (res1>253) && (res2>253) ) // Zones franchissables
   0BB5 3E FD              2404 	ld	a,#0xFD
   0BB7 B9                 2405 	cp	a,c
   0BB8 30 07              2406 	jr	NC,00117$
   0BBA 90                 2407 	sub	a,b
   0BBB 30 04              2408 	jr	NC,00117$
                           2409 ;main.c:883: res = OK;
   0BBD DD 36 FB 00        2410 	ld	-5 (ix),#0x00
   0BC1                    2411 00117$:
                           2412 ;main.c:889: if ( (res1Center==254) && (res2Center==254) )// Zone de construction de porte possible
   0BC1 7B                 2413 	ld	a,e
   0BC2 D6 FE              2414 	sub	a,#0xFE
   0BC4 20 49              2415 	jr	NZ,00123$
   0BC6 7A                 2416 	ld	a,d
   0BC7 D6 FE              2417 	sub	a,#0xFE
   0BC9 20 44              2418 	jr	NZ,00123$
                           2419 ;main.c:891: player.lastDoor1Cx = tx1Center;player.lastDoor1Cy = ty1Center;
   0BCB 21r11s00           2420 	ld	hl,#0x000f + _player
   0BCE DD 7E F8           2421 	ld	a,-8 (ix)
   0BD1 77                 2422 	ld	(hl),a
   0BD2 23                 2423 	inc	hl
   0BD3 DD 7E F7           2424 	ld	a,-9 (ix)
   0BD6 77                 2425 	ld	(hl),a
                           2426 ;main.c:892: player.lastDoor2Cx = tx2Center;player.lastDoor2Cy = ty2Center;
   0BD7 23                 2427 	inc	hl
   0BD8 DD 7E F6           2428 	ld	a,-10 (ix)
   0BDB 77                 2429 	ld	(hl),a
   0BDC 23                 2430 	inc	hl
   0BDD DD 7E F5           2431 	ld	a,-11 (ix)
   0BE0 77                 2432 	ld	(hl),a
                           2433 ;main.c:894: player.lastDoorGlobalPxStart = tx1Center<<3;
   0BE1 DD 7E F8           2434 	ld	a,-8 (ix)
   0BE4 07                 2435 	rlca
   0BE5 07                 2436 	rlca
   0BE6 07                 2437 	rlca
   0BE7 E6 F8              2438 	and	a,#0xF8
   0BE9 4F                 2439 	ld	c,a
   0BEA 23                 2440 	inc	hl
   0BEB 71                 2441 	ld	(hl),c
                           2442 ;main.c:895: player.lastDoorGlobalPyStart = ty1Center<<3;
   0BEC DD 7E F7           2443 	ld	a,-9 (ix)
   0BEF 07                 2444 	rlca
   0BF0 07                 2445 	rlca
   0BF1 07                 2446 	rlca
   0BF2 E6 F8              2447 	and	a,#0xF8
   0BF4 4F                 2448 	ld	c,a
   0BF5 23                 2449 	inc	hl
   0BF6 71                 2450 	ld	(hl),c
                           2451 ;main.c:897: if (tx2>tx1) // on est en horizontal !
   0BF7 DD 7E FF           2452 	ld	a,-1 (ix)
   0BFA DD 96 FD           2453 	sub	a,-3 (ix)
   0BFD 30 08              2454 	jr	NC,00120$
                           2455 ;main.c:899: player.lastDoorGlobalHauteur = 2;
   0BFF 23                 2456 	inc	hl
   0C00 36 02              2457 	ld	(hl),#0x02
                           2458 ;main.c:900: player.lastDoorGlobalLargeur = 16;
   0C02 23                 2459 	inc	hl
   0C03 36 10              2460 	ld	(hl),#0x10
   0C05 18 08              2461 	jr	00123$
   0C07                    2462 00120$:
                           2463 ;main.c:904: player.lastDoorGlobalHauteur = 16;
   0C07 21r17s00           2464 	ld	hl,#0x0015 + _player
   0C0A 36 10              2465 	ld	(hl),#0x10
                           2466 ;main.c:905: player.lastDoorGlobalLargeur = 2;
   0C0C 23                 2467 	inc	hl
   0C0D 36 02              2468 	ld	(hl),#0x02
   0C0F                    2469 00123$:
                           2470 ;main.c:910: if ((*pd0_affiche)==OK)
   0C0F 3Ar5Es00           2471 	ld	a,(#0x0008 + _playerDoors)
   0C12 B7                 2472 	or	a,a
   0C13 C2rA8s0C           2473 	jp	NZ,00134$
                           2474 ;main.c:912: if (((tx1==(*pd0_c1x)) && (ty1==(*pd0_c1y))) &&	((tx2==(*pd0_c2x)) && (ty2==(*pd0_c2y))))
   0C16 21r58s00           2475 	ld	hl,#0x0002 + _playerDoors
   0C19 6E                 2476 	ld	l,(hl)
   0C1A C5                 2477 	push	bc
                           2478 ;	direct compare
   0C1B DD 4E FF           2479 	ld	c,-1 (ix)
   0C1E 7D                 2480 	ld	a,l
   0C1F 91                 2481 	sub	a,c
   0C20 20 03              2482 	jr	NZ,00226$
   0C22 C1                 2483 	pop	bc
   0C23 18 04              2484 	jr	00227$
   0C25                    2485 00226$:
   0C25 C1                 2486 	pop	bc
   0C26 C3rA8s0C           2487 	jp	00134$
   0C29                    2488 00227$:
   0C29 21r59s00           2489 	ld	hl,#0x0003 + _playerDoors
   0C2C 6E                 2490 	ld	l,(hl)
   0C2D C5                 2491 	push	bc
                           2492 ;	direct compare
   0C2E DD 4E FE           2493 	ld	c,-2 (ix)
   0C31 7D                 2494 	ld	a,l
   0C32 91                 2495 	sub	a,c
   0C33 20 03              2496 	jr	NZ,00228$
   0C35 C1                 2497 	pop	bc
   0C36 18 03              2498 	jr	00229$
   0C38                    2499 00228$:
   0C38 C1                 2500 	pop	bc
   0C39 18 6D              2501 	jr	00134$
   0C3B                    2502 00229$:
   0C3B 21r5As00           2503 	ld	hl,#0x0004 + _playerDoors
   0C3E 6E                 2504 	ld	l,(hl)
   0C3F C5                 2505 	push	bc
                           2506 ;	direct compare
   0C40 DD 4E FD           2507 	ld	c,-3 (ix)
   0C43 7D                 2508 	ld	a,l
   0C44 91                 2509 	sub	a,c
   0C45 20 03              2510 	jr	NZ,00230$
   0C47 C1                 2511 	pop	bc
   0C48 18 03              2512 	jr	00231$
   0C4A                    2513 00230$:
   0C4A C1                 2514 	pop	bc
   0C4B 18 5B              2515 	jr	00134$
   0C4D                    2516 00231$:
   0C4D 21r5Bs00           2517 	ld	hl,#0x0005 + _playerDoors
   0C50 6E                 2518 	ld	l,(hl)
   0C51 C5                 2519 	push	bc
                           2520 ;	direct compare
   0C52 DD 4E FC           2521 	ld	c,-4 (ix)
   0C55 7D                 2522 	ld	a,l
   0C56 91                 2523 	sub	a,c
   0C57 20 03              2524 	jr	NZ,00232$
   0C59 C1                 2525 	pop	bc
   0C5A 18 03              2526 	jr	00233$
   0C5C                    2527 00232$:
   0C5C C1                 2528 	pop	bc
   0C5D 18 49              2529 	jr	00134$
   0C5F                    2530 00233$:
                           2531 ;main.c:914: res = isCollision(player.px,player.py,16,16,(*pd0_doorGlobalPxStart),(*pd0_doorGlobalPyStart),(*pd0_doorGlobalHauteur),(*pd0_doorGlobalLargeur));
   0C5F 21r62s00           2532 	ld	hl,#0x000c + _playerDoors
   0C62 4E                 2533 	ld	c,(hl)
   0C63 2B                 2534 	dec	hl
   0C64 46                 2535 	ld	b,(hl)
   0C65 2B                 2536 	dec	hl
   0C66 5E                 2537 	ld	e,(hl)
   0C67 2B                 2538 	dec	hl
   0C68 7E                 2539 	ld	a,(hl)
   0C69 DD 77 F2           2540 	ld	-14 (ix),a
   0C6C 3Ar03s00           2541 	ld	a,(#0x0001 + _player)
   0C6F DD 77 F3           2542 	ld	-13 (ix),a
   0C72 21r02s00           2543 	ld	hl,#_player
   0C75 56                 2544 	ld	d,(hl)
   0C76 79                 2545 	ld	a,c
   0C77 F5                 2546 	push	af
   0C78 33                 2547 	inc	sp
   0C79 C5                 2548 	push	bc
   0C7A 33                 2549 	inc	sp
   0C7B 7B                 2550 	ld	a,e
   0C7C F5                 2551 	push	af
   0C7D 33                 2552 	inc	sp
   0C7E DD 7E F2           2553 	ld	a,-14 (ix)
   0C81 F5                 2554 	push	af
   0C82 33                 2555 	inc	sp
   0C83 21 10 10           2556 	ld	hl,#0x1010
   0C86 E5                 2557 	push	hl
   0C87 DD 7E F3           2558 	ld	a,-13 (ix)
   0C8A F5                 2559 	push	af
   0C8B 33                 2560 	inc	sp
   0C8C D5                 2561 	push	de
   0C8D 33                 2562 	inc	sp
   0C8E CDr30s06           2563 	call	_isCollision
   0C91 F1                 2564 	pop	af
   0C92 F1                 2565 	pop	af
   0C93 F1                 2566 	pop	af
   0C94 F1                 2567 	pop	af
   0C95 DD 75 FB           2568 	ld	-5 (ix),l
                           2569 ;main.c:915: if (res==OK) res = NOK; else res = OK;				
   0C98 AF                 2570 	xor	a,a
   0C99 DD B6 FB           2571 	or	a,-5 (ix)
   0C9C 20 06              2572 	jr	NZ,00126$
   0C9E DD 36 FB 01        2573 	ld	-5 (ix),#0x01
   0CA2 18 04              2574 	jr	00134$
   0CA4                    2575 00126$:
   0CA4 DD 36 FB 00        2576 	ld	-5 (ix),#0x00
   0CA8                    2577 00134$:
                           2578 ;main.c:919: if ((*pd1_affiche)==OK)
   0CA8 21r6Bs00           2579 	ld	hl,#0x0008 + 0x000d + _playerDoors
   0CAB 7E                 2580 	ld	a,(hl)
   0CAC B7                 2581 	or	a,a
   0CAD C2r42s0D           2582 	jp	NZ,00144$
                           2583 ;main.c:921: if (((tx1==(*pd1_c1x)) && (ty1==(*pd1_c1y))) &&	((tx2==(*pd1_c2x)) && (ty2==(*pd1_c2y))))
   0CB0 21r65s00           2584 	ld	hl,#0x0002 + 0x000d + _playerDoors
   0CB3 6E                 2585 	ld	l,(hl)
   0CB4 C5                 2586 	push	bc
                           2587 ;	direct compare
   0CB5 DD 4E FF           2588 	ld	c,-1 (ix)
   0CB8 7D                 2589 	ld	a,l
   0CB9 91                 2590 	sub	a,c
   0CBA 20 03              2591 	jr	NZ,00234$
   0CBC C1                 2592 	pop	bc
   0CBD 18 04              2593 	jr	00235$
   0CBF                    2594 00234$:
   0CBF C1                 2595 	pop	bc
   0CC0 C3r42s0D           2596 	jp	00144$
   0CC3                    2597 00235$:
   0CC3 21r66s00           2598 	ld	hl,#0x0003 + 0x000d + _playerDoors
   0CC6 6E                 2599 	ld	l,(hl)
   0CC7 C5                 2600 	push	bc
                           2601 ;	direct compare
   0CC8 DD 4E FE           2602 	ld	c,-2 (ix)
   0CCB 7D                 2603 	ld	a,l
   0CCC 91                 2604 	sub	a,c
   0CCD 20 03              2605 	jr	NZ,00236$
   0CCF C1                 2606 	pop	bc
   0CD0 18 03              2607 	jr	00237$
   0CD2                    2608 00236$:
   0CD2 C1                 2609 	pop	bc
   0CD3 18 6D              2610 	jr	00144$
   0CD5                    2611 00237$:
   0CD5 21r67s00           2612 	ld	hl,#0x0004 + 0x000d + _playerDoors
   0CD8 6E                 2613 	ld	l,(hl)
   0CD9 C5                 2614 	push	bc
                           2615 ;	direct compare
   0CDA DD 4E FD           2616 	ld	c,-3 (ix)
   0CDD 7D                 2617 	ld	a,l
   0CDE 91                 2618 	sub	a,c
   0CDF 20 03              2619 	jr	NZ,00238$
   0CE1 C1                 2620 	pop	bc
   0CE2 18 03              2621 	jr	00239$
   0CE4                    2622 00238$:
   0CE4 C1                 2623 	pop	bc
   0CE5 18 5B              2624 	jr	00144$
   0CE7                    2625 00239$:
   0CE7 21r68s00           2626 	ld	hl,#0x0005 + 0x000d + _playerDoors
   0CEA 6E                 2627 	ld	l,(hl)
   0CEB C5                 2628 	push	bc
                           2629 ;	direct compare
   0CEC DD 4E FC           2630 	ld	c,-4 (ix)
   0CEF 7D                 2631 	ld	a,l
   0CF0 91                 2632 	sub	a,c
   0CF1 20 03              2633 	jr	NZ,00240$
   0CF3 C1                 2634 	pop	bc
   0CF4 18 03              2635 	jr	00241$
   0CF6                    2636 00240$:
   0CF6 C1                 2637 	pop	bc
   0CF7 18 49              2638 	jr	00144$
   0CF9                    2639 00241$:
                           2640 ;main.c:923: res = isCollision(player.px,player.py,16,16,(*pd1_doorGlobalPxStart),(*pd1_doorGlobalPyStart),(*pd1_doorGlobalHauteur),(*pd1_doorGlobalLargeur));
   0CF9 21r6Fs00           2641 	ld	hl,#0x000c + 0x000d + _playerDoors
   0CFC 4E                 2642 	ld	c,(hl)
   0CFD 2B                 2643 	dec	hl
   0CFE 46                 2644 	ld	b,(hl)
   0CFF 2B                 2645 	dec	hl
   0D00 5E                 2646 	ld	e,(hl)
   0D01 2B                 2647 	dec	hl
   0D02 7E                 2648 	ld	a,(hl)
   0D03 DD 77 F2           2649 	ld	-14 (ix),a
   0D06 3Ar03s00           2650 	ld	a,(#0x0001 + _player)
   0D09 DD 77 F3           2651 	ld	-13 (ix),a
   0D0C 21r02s00           2652 	ld	hl,#_player
   0D0F 56                 2653 	ld	d,(hl)
   0D10 79                 2654 	ld	a,c
   0D11 F5                 2655 	push	af
   0D12 33                 2656 	inc	sp
   0D13 C5                 2657 	push	bc
   0D14 33                 2658 	inc	sp
   0D15 7B                 2659 	ld	a,e
   0D16 F5                 2660 	push	af
   0D17 33                 2661 	inc	sp
   0D18 DD 7E F2           2662 	ld	a,-14 (ix)
   0D1B F5                 2663 	push	af
   0D1C 33                 2664 	inc	sp
   0D1D 21 10 10           2665 	ld	hl,#0x1010
   0D20 E5                 2666 	push	hl
   0D21 DD 7E F3           2667 	ld	a,-13 (ix)
   0D24 F5                 2668 	push	af
   0D25 33                 2669 	inc	sp
   0D26 D5                 2670 	push	de
   0D27 33                 2671 	inc	sp
   0D28 CDr30s06           2672 	call	_isCollision
   0D2B F1                 2673 	pop	af
   0D2C F1                 2674 	pop	af
   0D2D F1                 2675 	pop	af
   0D2E F1                 2676 	pop	af
   0D2F DD 75 FB           2677 	ld	-5 (ix),l
                           2678 ;main.c:924: if (res==OK) res = NOK; else res = OK;				
   0D32 AF                 2679 	xor	a,a
   0D33 DD B6 FB           2680 	or	a,-5 (ix)
   0D36 20 06              2681 	jr	NZ,00136$
   0D38 DD 36 FB 01        2682 	ld	-5 (ix),#0x01
   0D3C 18 04              2683 	jr	00144$
   0D3E                    2684 00136$:
   0D3E DD 36 FB 00        2685 	ld	-5 (ix),#0x00
   0D42                    2686 00144$:
                           2687 ;main.c:930: if ( (autoDoorCurrentGfx>2) && (autoDoorCurrentGfx<15) )
   0D42 3E 02              2688 	ld	a,#0x02
   0D44 FD 21r80s00        2689 	ld	iy,#_autoDoorCurrentGfx
   0D48 FD 96 00           2690 	sub	a,0 (iy)
   0D4B D2rFDs0D           2691 	jp	NC,00161$
   0D4E FD 7E 00           2692 	ld	a,0 (iy)
   0D51 D6 0F              2693 	sub	a,#0x0F
   0D53 D2rFDs0D           2694 	jp	NC,00161$
                           2695 ;main.c:932: if ( (tx3==(*d0_cx)) && (ty3==(*d0_cy)) ) {res=NOK;}
   0D56 21r70s00           2696 	ld	hl,#_autoDoors
   0D59 6E                 2697 	ld	l,(hl)
   0D5A C5                 2698 	push	bc
                           2699 ;	direct compare
   0D5B DD 4E FA           2700 	ld	c,-6 (ix)
   0D5E 7D                 2701 	ld	a,l
   0D5F 91                 2702 	sub	a,c
   0D60 20 03              2703 	jr	NZ,00242$
   0D62 C1                 2704 	pop	bc
   0D63 18 03              2705 	jr	00243$
   0D65                    2706 00242$:
   0D65 C1                 2707 	pop	bc
   0D66 18 19              2708 	jr	00157$
   0D68                    2709 00243$:
   0D68 21r71s00           2710 	ld	hl,#0x0001 + _autoDoors
   0D6B 6E                 2711 	ld	l,(hl)
   0D6C C5                 2712 	push	bc
                           2713 ;	direct compare
   0D6D DD 4E F9           2714 	ld	c,-7 (ix)
   0D70 7D                 2715 	ld	a,l
   0D71 91                 2716 	sub	a,c
   0D72 20 03              2717 	jr	NZ,00244$
   0D74 C1                 2718 	pop	bc
   0D75 18 03              2719 	jr	00245$
   0D77                    2720 00244$:
   0D77 C1                 2721 	pop	bc
   0D78 18 07              2722 	jr	00157$
   0D7A                    2723 00245$:
   0D7A DD 36 FB 01        2724 	ld	-5 (ix),#0x01
   0D7E C3rFDs0D           2725 	jp	00161$
   0D81                    2726 00157$:
                           2727 ;main.c:933: else if ( (tx3==(*d1_cx)) && (ty3==(*d1_cy)) ) {res=NOK;}
   0D81 21r74s00           2728 	ld	hl,#0x0004 + _autoDoors
   0D84 6E                 2729 	ld	l,(hl)
   0D85 C5                 2730 	push	bc
                           2731 ;	direct compare
   0D86 DD 4E FA           2732 	ld	c,-6 (ix)
   0D89 7D                 2733 	ld	a,l
   0D8A 91                 2734 	sub	a,c
   0D8B 20 03              2735 	jr	NZ,00246$
   0D8D C1                 2736 	pop	bc
   0D8E 18 03              2737 	jr	00247$
   0D90                    2738 00246$:
   0D90 C1                 2739 	pop	bc
   0D91 18 18              2740 	jr	00153$
   0D93                    2741 00247$:
   0D93 21r75s00           2742 	ld	hl,#0x0001 + 0x0004 + _autoDoors
   0D96 6E                 2743 	ld	l,(hl)
   0D97 C5                 2744 	push	bc
                           2745 ;	direct compare
   0D98 DD 4E F9           2746 	ld	c,-7 (ix)
   0D9B 7D                 2747 	ld	a,l
   0D9C 91                 2748 	sub	a,c
   0D9D 20 03              2749 	jr	NZ,00248$
   0D9F C1                 2750 	pop	bc
   0DA0 18 03              2751 	jr	00249$
   0DA2                    2752 00248$:
   0DA2 C1                 2753 	pop	bc
   0DA3 18 06              2754 	jr	00153$
   0DA5                    2755 00249$:
   0DA5 DD 36 FB 01        2756 	ld	-5 (ix),#0x01
   0DA9 18 52              2757 	jr	00161$
   0DAB                    2758 00153$:
                           2759 ;main.c:934: else if ( (tx3==(*d2_cx)) && (ty3==(*d2_cy)) ) {res=NOK;}
   0DAB 21r78s00           2760 	ld	hl,#0x0008 + _autoDoors
   0DAE 6E                 2761 	ld	l,(hl)
   0DAF C5                 2762 	push	bc
                           2763 ;	direct compare
   0DB0 DD 4E FA           2764 	ld	c,-6 (ix)
   0DB3 7D                 2765 	ld	a,l
   0DB4 91                 2766 	sub	a,c
   0DB5 20 03              2767 	jr	NZ,00250$
   0DB7 C1                 2768 	pop	bc
   0DB8 18 03              2769 	jr	00251$
   0DBA                    2770 00250$:
   0DBA C1                 2771 	pop	bc
   0DBB 18 18              2772 	jr	00149$
   0DBD                    2773 00251$:
   0DBD 21r79s00           2774 	ld	hl,#0x0001 + 0x0008 + _autoDoors
   0DC0 6E                 2775 	ld	l,(hl)
   0DC1 C5                 2776 	push	bc
                           2777 ;	direct compare
   0DC2 DD 4E F9           2778 	ld	c,-7 (ix)
   0DC5 7D                 2779 	ld	a,l
   0DC6 91                 2780 	sub	a,c
   0DC7 20 03              2781 	jr	NZ,00252$
   0DC9 C1                 2782 	pop	bc
   0DCA 18 03              2783 	jr	00253$
   0DCC                    2784 00252$:
   0DCC C1                 2785 	pop	bc
   0DCD 18 06              2786 	jr	00149$
   0DCF                    2787 00253$:
   0DCF DD 36 FB 01        2788 	ld	-5 (ix),#0x01
   0DD3 18 28              2789 	jr	00161$
   0DD5                    2790 00149$:
                           2791 ;main.c:935: else if ( (tx3==(*d3_cx)) && (ty3==(*d3_cy)) ) {res=NOK;}
   0DD5 21r7Cs00           2792 	ld	hl,#0x000c + _autoDoors
   0DD8 6E                 2793 	ld	l,(hl)
   0DD9 C5                 2794 	push	bc
                           2795 ;	direct compare
   0DDA DD 4E FA           2796 	ld	c,-6 (ix)
   0DDD 7D                 2797 	ld	a,l
   0DDE 91                 2798 	sub	a,c
   0DDF 20 03              2799 	jr	NZ,00254$
   0DE1 C1                 2800 	pop	bc
   0DE2 18 03              2801 	jr	00255$
   0DE4                    2802 00254$:
   0DE4 C1                 2803 	pop	bc
   0DE5 18 16              2804 	jr	00161$
   0DE7                    2805 00255$:
   0DE7 21r7Ds00           2806 	ld	hl,#0x0001 + 0x000c + _autoDoors
   0DEA 6E                 2807 	ld	l,(hl)
   0DEB C5                 2808 	push	bc
                           2809 ;	direct compare
   0DEC DD 4E F9           2810 	ld	c,-7 (ix)
   0DEF 7D                 2811 	ld	a,l
   0DF0 91                 2812 	sub	a,c
   0DF1 20 03              2813 	jr	NZ,00256$
   0DF3 C1                 2814 	pop	bc
   0DF4 18 03              2815 	jr	00257$
   0DF6                    2816 00256$:
   0DF6 C1                 2817 	pop	bc
   0DF7 18 04              2818 	jr	00161$
   0DF9                    2819 00257$:
   0DF9 DD 36 FB 01        2820 	ld	-5 (ix),#0x01
   0DFD                    2821 00161$:
                           2822 ;main.c:938: return res;
   0DFD DD 6E FB           2823 	ld	l,-5 (ix)
   0E00 DD F9              2824 	ld	sp,ix
   0E02 DD E1              2825 	pop	ix
   0E04 C9                 2826 	ret
   0E05                    2827 _isPlayerDirectionFree_end::
                           2828 ;main.c:941: byte isCopDirectionFree(char c,char direction)
                           2829 ;	---------------------------------
                           2830 ; Function isCopDirectionFree
                           2831 ; ---------------------------------
   0E05                    2832 _isCopDirectionFree_start::
   0E05                    2833 _isCopDirectionFree:
   0E05 DD E5              2834 	push	ix
   0E07 DD 21 00 00        2835 	ld	ix,#0
   0E0B DD 39              2836 	add	ix,sp
   0E0D 21 F6 FF           2837 	ld	hl,#-10
   0E10 39                 2838 	add	hl,sp
   0E11 F9                 2839 	ld	sp,hl
                           2840 ;main.c:945: s_cop *mycop = &cop[c];	
   0E12 DD 7E 04           2841 	ld	a,4 (ix)
   0E15 5F                 2842 	ld	e,a
   0E16 87                 2843 	add	a,a
   0E17 83                 2844 	add	a,e
   0E18 87                 2845 	add	a,a
   0E19 87                 2846 	add	a,a
   0E1A 83                 2847 	add	a,e
   0E1B C6r22              2848 	add	a,#<(_cop)
   0E1D 4F                 2849 	ld	c,a
   0E1E 3Es00              2850 	ld	a,#>(_cop)
   0E20 CE 00              2851 	adc	a,#0x00
   0E22 47                 2852 	ld	b,a
                           2853 ;main.c:946: byte *cop_py = &mycop->py;
   0E23 21 01 00           2854 	ld	hl,#0x0001
   0E26 09                 2855 	add	hl,bc
   0E27 DD 75 FC           2856 	ld	-4 (ix),l
   0E2A DD 74 FD           2857 	ld	-3 (ix),h
                           2858 ;main.c:949: s_playerDoors *pd0 = &playerDoors[0];
                           2859 ;main.c:950: s_playerDoors *pd1 = &playerDoors[1];
                           2860 ;main.c:952: byte *pd0_affiche = &pd0->affiche;
                           2861 ;main.c:953: byte *pd0_c1x = &pd0->c1x;
                           2862 ;main.c:954: byte *pd0_c1y = &pd0->c1y;
                           2863 ;main.c:957: byte *pd1_affiche = &pd1->affiche;
                           2864 ;main.c:958: byte *pd1_c1x = &pd1->c1x;
                           2865 ;main.c:959: byte *pd1_c1y = &pd1->c1y;
                           2866 ;main.c:962: s_autoDoors *ad0 = &autoDoors[0];
                           2867 ;main.c:963: s_autoDoors *ad1 = &autoDoors[1];
                           2868 ;main.c:964: s_autoDoors *ad2 = &autoDoors[2];
                           2869 ;main.c:965: s_autoDoors *ad3 = &autoDoors[3];
                           2870 ;main.c:967: byte *ad0_cx = &ad0->cx;
                           2871 ;main.c:968: byte *ad0_cy = &ad0->cy;
                           2872 ;main.c:969: byte *ad1_cx = &ad1->cx;
                           2873 ;main.c:970: byte *ad1_cy = &ad1->cy;
                           2874 ;main.c:971: byte *ad2_cx = &ad2->cx;
                           2875 ;main.c:972: byte *ad2_cy = &ad2->cy;
                           2876 ;main.c:973: byte *ad3_cx = &ad3->cx;
                           2877 ;main.c:974: byte *ad3_cy = &ad3->cy;
                           2878 ;main.c:978: res = NOK;	
   0E2D DD 36 FE 01        2879 	ld	-2 (ix),#0x01
                           2880 ;main.c:981: if (direction==DROITE)
   0E31 DD 7E 05           2881 	ld	a,5 (ix)
   0E34 D6 03              2882 	sub	a,#0x03
   0E36 20 60              2883 	jr	NZ,00108$
                           2884 ;main.c:983: tx1 = ((*cop_px)+16) >> 3;
   0E38 0A                 2885 	ld	a,(bc)
   0E39 4F                 2886 	ld	c, a
   0E3A 06 00              2887 	ld	b,#0x00
   0E3C 21 10 00           2888 	ld	hl,#0x0010
   0E3F 09                 2889 	add	hl,bc
   0E40 CB 2C              2890 	sra	h
   0E42 CB 1D              2891 	rr	l
   0E44 CB 2C              2892 	sra	h
   0E46 CB 1D              2893 	rr	l
   0E48 CB 2C              2894 	sra	h
   0E4A CB 1D              2895 	rr	l
   0E4C 5D                 2896 	ld	e,l
   0E4D DD 73 F7           2897 	ld	-9 (ix),e
                           2898 ;main.c:984: ty1 = ((*cop_py)) >> 3;
   0E50 DD 6E FC           2899 	ld	l,-4 (ix)
   0E53 DD 66 FD           2900 	ld	h,-3 (ix)
   0E56 6E                 2901 	ld	l,(hl)
   0E57 7D                 2902 	ld	a,l
   0E58 CB 3F              2903 	srl	a
   0E5A CB 3F              2904 	srl	a
   0E5C CB 3F              2905 	srl	a
   0E5E DD 77 FF           2906 	ld	-1 (ix), a
   0E61 DD 77 F9           2907 	ld	-7 (ix),a
                           2908 ;main.c:985: tx2 = ((*cop_px)+16) >> 3;
   0E64 DD 73 F8           2909 	ld	-8 (ix),e
                           2910 ;main.c:986: ty2 = ((*cop_py)+15) >> 3;		
   0E67 26 00              2911 	ld	h,#0x00
   0E69 7D                 2912 	ld	a,l
   0E6A C6 0F              2913 	add	a,#0x0F
   0E6C 5F                 2914 	ld	e,a
   0E6D 7C                 2915 	ld	a,h
   0E6E CE 00              2916 	adc	a,#0x00
   0E70 67                 2917 	ld	h, a
   0E71 6B                 2918 	ld	l, e
   0E72 CB 2C              2919 	sra	h
   0E74 CB 1D              2920 	rr	l
   0E76 CB 2C              2921 	sra	h
   0E78 CB 1D              2922 	rr	l
   0E7A CB 2C              2923 	sra	h
   0E7C CB 1D              2924 	rr	l
   0E7E DD 75 F6           2925 	ld	-10 (ix),l
                           2926 ;main.c:988: tx3 = ((*cop_px)+13) >> 3;
   0E81 21 0D 00           2927 	ld	hl,#0x000D
   0E84 09                 2928 	add	hl,bc
   0E85 CB 2C              2929 	sra	h
   0E87 CB 1D              2930 	rr	l
   0E89 CB 2C              2931 	sra	h
   0E8B CB 1D              2932 	rr	l
   0E8D CB 2C              2933 	sra	h
   0E8F CB 1D              2934 	rr	l
   0E91 5D                 2935 	ld	e,l
                           2936 ;main.c:989: ty3 = ((*cop_py)) >> 3;
   0E92 DD 56 FF           2937 	ld	d,-1 (ix)
   0E95 C3rE1s0F           2938 	jp	00109$
   0E98                    2939 00108$:
                           2940 ;main.c:992: if (direction==GAUCHE)
   0E98 DD 7E 05           2941 	ld	a,5 (ix)
   0E9B D6 02              2942 	sub	a,#0x02
   0E9D 20 5F              2943 	jr	NZ,00105$
                           2944 ;main.c:994: tx1 = ((*cop_px)-1) >> 3;
   0E9F 0A                 2945 	ld	a,(bc)
   0EA0 4F                 2946 	ld	c, a
   0EA1 06 00              2947 	ld	b, #0x00
   0EA3 6F                 2948 	ld	l, a
   0EA4 60                 2949 	ld	h,b
   0EA5 2B                 2950 	dec	hl
   0EA6 CB 2C              2951 	sra	h
   0EA8 CB 1D              2952 	rr	l
   0EAA CB 2C              2953 	sra	h
   0EAC CB 1D              2954 	rr	l
   0EAE CB 2C              2955 	sra	h
   0EB0 CB 1D              2956 	rr	l
   0EB2 5D                 2957 	ld	e,l
   0EB3 DD 73 F7           2958 	ld	-9 (ix),e
                           2959 ;main.c:995: ty1 = ((*cop_py)) >> 3;
   0EB6 DD 6E FC           2960 	ld	l,-4 (ix)
   0EB9 DD 66 FD           2961 	ld	h,-3 (ix)
   0EBC 6E                 2962 	ld	l,(hl)
   0EBD 7D                 2963 	ld	a,l
   0EBE CB 3F              2964 	srl	a
   0EC0 CB 3F              2965 	srl	a
   0EC2 CB 3F              2966 	srl	a
   0EC4 DD 77 FF           2967 	ld	-1 (ix), a
   0EC7 DD 77 F9           2968 	ld	-7 (ix),a
                           2969 ;main.c:996: tx2 = ((*cop_px)-1) >> 3;
   0ECA DD 73 F8           2970 	ld	-8 (ix),e
                           2971 ;main.c:997: ty2 = ((*cop_py)+15) >> 3;
   0ECD 26 00              2972 	ld	h,#0x00
   0ECF 7D                 2973 	ld	a,l
   0ED0 C6 0F              2974 	add	a,#0x0F
   0ED2 5F                 2975 	ld	e,a
   0ED3 7C                 2976 	ld	a,h
   0ED4 CE 00              2977 	adc	a,#0x00
   0ED6 67                 2978 	ld	h, a
   0ED7 6B                 2979 	ld	l, e
   0ED8 CB 2C              2980 	sra	h
   0EDA CB 1D              2981 	rr	l
   0EDC CB 2C              2982 	sra	h
   0EDE CB 1D              2983 	rr	l
   0EE0 CB 2C              2984 	sra	h
   0EE2 CB 1D              2985 	rr	l
   0EE4 DD 75 F6           2986 	ld	-10 (ix),l
                           2987 ;main.c:999: tx3 = ((*cop_px)+6) >> 3;
   0EE7 21 06 00           2988 	ld	hl,#0x0006
   0EEA 09                 2989 	add	hl,bc
   0EEB CB 2C              2990 	sra	h
   0EED CB 1D              2991 	rr	l
   0EEF CB 2C              2992 	sra	h
   0EF1 CB 1D              2993 	rr	l
   0EF3 CB 2C              2994 	sra	h
   0EF5 CB 1D              2995 	rr	l
   0EF7 5D                 2996 	ld	e,l
                           2997 ;main.c:1000: ty3 = ((*cop_py)) >> 3;
   0EF8 DD 56 FF           2998 	ld	d,-1 (ix)
   0EFB C3rE1s0F           2999 	jp	00109$
   0EFE                    3000 00105$:
                           3001 ;main.c:1003: if (direction==BAS)
   0EFE DD 7E 05           3002 	ld	a,5 (ix)
   0F01 D6 01              3003 	sub	a,#0x01
   0F03 20 74              3004 	jr	NZ,00102$
                           3005 ;main.c:1005: tx1 = ((*cop_px)) >> 3;
   0F05 0A                 3006 	ld	a,(bc)
   0F06 5F                 3007 	ld	e,a
   0F07 53                 3008 	ld	d,e
   0F08 CB 3A              3009 	srl	d
   0F0A CB 3A              3010 	srl	d
   0F0C CB 3A              3011 	srl	d
   0F0E DD 72 F7           3012 	ld	-9 (ix),d
                           3013 ;main.c:1006: ty1 = ((*cop_py)+16) >> 3;
   0F11 DD 6E FC           3014 	ld	l,-4 (ix)
   0F14 DD 66 FD           3015 	ld	h,-3 (ix)
   0F17 6E                 3016 	ld	l,(hl)
   0F18 DD 75 FA           3017 	ld	-6 (ix),l
   0F1B DD 36 FB 00        3018 	ld	-5 (ix),#0x00
   0F1F DD 7E FA           3019 	ld	a,-6 (ix)
   0F22 C6 10              3020 	add	a,#0x10
   0F24 6F                 3021 	ld	l, a
   0F25 DD 7E FB           3022 	ld	a, -5 (ix)
   0F28 CE 00              3023 	adc	a, #0x00
   0F2A 67                 3024 	ld	h, a
   0F2B CB 2C              3025 	sra	h
   0F2D CB 1D              3026 	rr	l
   0F2F CB 2C              3027 	sra	h
   0F31 CB 1D              3028 	rr	l
   0F33 CB 2C              3029 	sra	h
   0F35 CB 1D              3030 	rr	l
   0F37 DD 75 FF           3031 	ld	-1 (ix), l
   0F3A DD 75 F9           3032 	ld	-7 (ix), l
                           3033 ;main.c:1007: tx2 = ((*cop_px)+15) >> 3;
   0F3D 7B                 3034 	ld	a, e
   0F3E 26 00              3035 	ld	h, #0x00
   0F40 C6 0F              3036 	add	a,#0x0F
   0F42 4F                 3037 	ld	c,a
   0F43 7C                 3038 	ld	a,h
   0F44 CE 00              3039 	adc	a,#0x00
   0F46 67                 3040 	ld	h, a
   0F47 69                 3041 	ld	l, c
   0F48 CB 2C              3042 	sra	h
   0F4A CB 1D              3043 	rr	l
   0F4C CB 2C              3044 	sra	h
   0F4E CB 1D              3045 	rr	l
   0F50 CB 2C              3046 	sra	h
   0F52 CB 1D              3047 	rr	l
   0F54 DD 75 F8           3048 	ld	-8 (ix),l
                           3049 ;main.c:1008: ty2 = ((*cop_py)+16) >> 3;
   0F57 DD 7E FF           3050 	ld	a,-1 (ix)
   0F5A DD 77 F6           3051 	ld	-10 (ix),a
                           3052 ;main.c:1010: tx3 = ((*cop_px)) >> 3;
   0F5D 5A                 3053 	ld	e,d
                           3054 ;main.c:1011: ty3 = ((*cop_py)+14) >> 3;
   0F5E DD 7E FA           3055 	ld	a,-6 (ix)
   0F61 C6 0E              3056 	add	a,#0x0E
   0F63 6F                 3057 	ld	l, a
   0F64 DD 7E FB           3058 	ld	a, -5 (ix)
   0F67 CE 00              3059 	adc	a, #0x00
   0F69 67                 3060 	ld	h, a
   0F6A CB 2C              3061 	sra	h
   0F6C CB 1D              3062 	rr	l
   0F6E CB 2C              3063 	sra	h
   0F70 CB 1D              3064 	rr	l
   0F72 CB 2C              3065 	sra	h
   0F74 CB 1D              3066 	rr	l
   0F76 55                 3067 	ld	d,l
   0F77 18 68              3068 	jr	00109$
   0F79                    3069 00102$:
                           3070 ;main.c:1015: tx1 = ((*cop_px)) >> 3;
   0F79 0A                 3071 	ld	a,(bc)
   0F7A 4F                 3072 	ld	c,a
   0F7B 51                 3073 	ld	d,c
   0F7C CB 3A              3074 	srl	d
   0F7E CB 3A              3075 	srl	d
   0F80 CB 3A              3076 	srl	d
   0F82 DD 72 F7           3077 	ld	-9 (ix),d
                           3078 ;main.c:1016: ty1 = ((*cop_py)-1) >> 3;
   0F85 DD 6E FC           3079 	ld	l,-4 (ix)
   0F88 DD 66 FD           3080 	ld	h,-3 (ix)
   0F8B 6E                 3081 	ld	l,(hl)
   0F8C DD 75 FA           3082 	ld	-6 (ix),l
   0F8F DD 36 FB 00        3083 	ld	-5 (ix),#0x00
   0F93 DD 6E FA           3084 	ld	l,-6 (ix)
   0F96 DD 66 FB           3085 	ld	h,-5 (ix)
   0F99 2B                 3086 	dec	hl
   0F9A CB 2C              3087 	sra	h
   0F9C CB 1D              3088 	rr	l
   0F9E CB 2C              3089 	sra	h
   0FA0 CB 1D              3090 	rr	l
   0FA2 CB 2C              3091 	sra	h
   0FA4 CB 1D              3092 	rr	l
   0FA6 5D                 3093 	ld	e,l
   0FA7 DD 73 F9           3094 	ld	-7 (ix),e
                           3095 ;main.c:1017: tx2 = ((*cop_px)+15) >> 3;
   0FAA 79                 3096 	ld	a, c
   0FAB 26 00              3097 	ld	h, #0x00
   0FAD C6 0F              3098 	add	a,#0x0F
   0FAF 4F                 3099 	ld	c,a
   0FB0 7C                 3100 	ld	a,h
   0FB1 CE 00              3101 	adc	a,#0x00
   0FB3 67                 3102 	ld	h, a
   0FB4 69                 3103 	ld	l, c
   0FB5 CB 2C              3104 	sra	h
   0FB7 CB 1D              3105 	rr	l
   0FB9 CB 2C              3106 	sra	h
   0FBB CB 1D              3107 	rr	l
   0FBD CB 2C              3108 	sra	h
   0FBF CB 1D              3109 	rr	l
   0FC1 DD 75 F8           3110 	ld	-8 (ix),l
                           3111 ;main.c:1018: ty2 = ((*cop_py)-1) >> 3;
   0FC4 DD 73 F6           3112 	ld	-10 (ix),e
                           3113 ;main.c:1020: tx3 = ((*cop_px)) >> 3;
   0FC7 5A                 3114 	ld	e,d
                           3115 ;main.c:1021: ty3 = ((*cop_py)+6) >> 3;
   0FC8 DD 7E FA           3116 	ld	a,-6 (ix)
   0FCB C6 06              3117 	add	a,#0x06
   0FCD 6F                 3118 	ld	l, a
   0FCE DD 7E FB           3119 	ld	a, -5 (ix)
   0FD1 CE 00              3120 	adc	a, #0x00
   0FD3 67                 3121 	ld	h, a
   0FD4 CB 2C              3122 	sra	h
   0FD6 CB 1D              3123 	rr	l
   0FD8 CB 2C              3124 	sra	h
   0FDA CB 1D              3125 	rr	l
   0FDC CB 2C              3126 	sra	h
   0FDE CB 1D              3127 	rr	l
   0FE0 55                 3128 	ld	d,l
   0FE1                    3129 00109$:
                           3130 ;main.c:1024: res1 = peekGhostGameZone(tx1,ty1);
   0FE1 D5                 3131 	push	de
   0FE2 DD 66 F9           3132 	ld	h,-7 (ix)
   0FE5 DD 6E F7           3133 	ld	l,-9 (ix)
   0FE8 E5                 3134 	push	hl
   0FE9 CDrADs06           3135 	call	_peekGhostGameZone
   0FEC F1                 3136 	pop	af
   0FED D1                 3137 	pop	de
   0FEE 4D                 3138 	ld	c,l
                           3139 ;main.c:1025: res2 = peekGhostGameZone(tx2,ty2);
   0FEF C5                 3140 	push	bc
   0FF0 D5                 3141 	push	de
   0FF1 DD 66 F6           3142 	ld	h,-10 (ix)
   0FF4 DD 6E F8           3143 	ld	l,-8 (ix)
   0FF7 E5                 3144 	push	hl
   0FF8 CDrADs06           3145 	call	_peekGhostGameZone
   0FFB F1                 3146 	pop	af
   0FFC D1                 3147 	pop	de
   0FFD C1                 3148 	pop	bc
   0FFE 45                 3149 	ld	b,l
                           3150 ;main.c:1027: res3 = peekGhostGameZone(tx3,ty3);
   0FFF C5                 3151 	push	bc
   1000 D5                 3152 	push	de
   1001 D5                 3153 	push	de
   1002 CDrADs06           3154 	call	_peekGhostGameZone
   1005 F1                 3155 	pop	af
   1006 D1                 3156 	pop	de
   1007 C1                 3157 	pop	bc
                           3158 ;main.c:1029: if ( (res1>253) && (res2>253) )
   1008 3E FD              3159 	ld	a,#0xFD
   100A B9                 3160 	cp	a,c
   100B 30 07              3161 	jr	NC,00111$
   100D 90                 3162 	sub	a,b
   100E 30 04              3163 	jr	NC,00111$
                           3164 ;main.c:1031: res = OK;
   1010 DD 36 FE 00        3165 	ld	-2 (ix),#0x00
   1014                    3166 00111$:
                           3167 ;main.c:1034: if ((*pd0_affiche)==OK)
   1014 3Ar5Es00           3168 	ld	a,(#0x0008 + _playerDoors)
   1017 B7                 3169 	or	a,a
   1018 20 2E              3170 	jr	NZ,00117$
                           3171 ;main.c:1036: if ((tx3==(*pd0_c1x)) && (ty3==(*pd0_c1y)))
   101A 21r58s00           3172 	ld	hl,#0x0002 + _playerDoors
   101D 6E                 3173 	ld	l,(hl)
   101E C5                 3174 	push	bc
                           3175 ;	direct compare
   101F 4B                 3176 	ld	c,e
   1020 7D                 3177 	ld	a,l
   1021 91                 3178 	sub	a,c
   1022 20 03              3179 	jr	NZ,00180$
   1024 C1                 3180 	pop	bc
   1025 18 03              3181 	jr	00181$
   1027                    3182 00180$:
   1027 C1                 3183 	pop	bc
   1028 18 1E              3184 	jr	00117$
   102A                    3185 00181$:
   102A 21r59s00           3186 	ld	hl,#0x0003 + _playerDoors
   102D 6E                 3187 	ld	l,(hl)
   102E C5                 3188 	push	bc
                           3189 ;	direct compare
   102F 4A                 3190 	ld	c,d
   1030 7D                 3191 	ld	a,l
   1031 91                 3192 	sub	a,c
   1032 20 03              3193 	jr	NZ,00182$
   1034 C1                 3194 	pop	bc
   1035 18 03              3195 	jr	00183$
   1037                    3196 00182$:
   1037 C1                 3197 	pop	bc
   1038 18 0E              3198 	jr	00117$
   103A                    3199 00183$:
                           3200 ;main.c:1038: res=NOK;
   103A DD 36 FE 01        3201 	ld	-2 (ix),#0x01
                           3202 ;main.c:1039: addScore(1);
   103E D5                 3203 	push	de
   103F 3E 01              3204 	ld	a,#0x01
   1041 F5                 3205 	push	af
   1042 33                 3206 	inc	sp
   1043 CDr6Fs03           3207 	call	_addScore
   1046 33                 3208 	inc	sp
   1047 D1                 3209 	pop	de
   1048                    3210 00117$:
                           3211 ;main.c:1042: if ((*pd1_affiche)==OK)
   1048 21r6Bs00           3212 	ld	hl,#0x0008 + 0x000d + _playerDoors
   104B 7E                 3213 	ld	a,(hl)
   104C B7                 3214 	or	a,a
   104D 20 24              3215 	jr	NZ,00122$
                           3216 ;main.c:1044: if ((tx3==(*pd1_c1x)) && (ty3==(*pd1_c1y)))
   104F 21r65s00           3217 	ld	hl,#0x0002 + 0x000d + _playerDoors
   1052 6E                 3218 	ld	l,(hl)
   1053 C5                 3219 	push	bc
                           3220 ;	direct compare
   1054 4B                 3221 	ld	c,e
   1055 7D                 3222 	ld	a,l
   1056 91                 3223 	sub	a,c
   1057 20 03              3224 	jr	NZ,00184$
   1059 C1                 3225 	pop	bc
   105A 18 03              3226 	jr	00185$
   105C                    3227 00184$:
   105C C1                 3228 	pop	bc
   105D 18 14              3229 	jr	00122$
   105F                    3230 00185$:
   105F 21r66s00           3231 	ld	hl,#0x0003 + 0x000d + _playerDoors
   1062 6E                 3232 	ld	l,(hl)
   1063 C5                 3233 	push	bc
                           3234 ;	direct compare
   1064 4A                 3235 	ld	c,d
   1065 7D                 3236 	ld	a,l
   1066 91                 3237 	sub	a,c
   1067 20 03              3238 	jr	NZ,00186$
   1069 C1                 3239 	pop	bc
   106A 18 03              3240 	jr	00187$
   106C                    3241 00186$:
   106C C1                 3242 	pop	bc
   106D 18 04              3243 	jr	00122$
   106F                    3244 00187$:
                           3245 ;main.c:1046: res=NOK;
   106F DD 36 FE 01        3246 	ld	-2 (ix),#0x01
   1073                    3247 00122$:
                           3248 ;main.c:1051: if (autoDoorCurrentGfx>4) // Ca fait tout ramer si le cop est bloqu dans la porte !!!!!!
   1073 3E 04              3249 	ld	a,#0x04
   1075 FD 21r80s00        3250 	ld	iy,#_autoDoorCurrentGfx
   1079 FD 96 00           3251 	sub	a,0 (iy)
   107C D2r16s11           3252 	jp	NC,00139$
                           3253 ;main.c:1053: if ((tx3==(*ad0_cx)) && (ty3==(*ad0_cy))) {res=NOK;}
   107F 21r70s00           3254 	ld	hl,#_autoDoors
   1082 6E                 3255 	ld	l,(hl)
   1083 C5                 3256 	push	bc
                           3257 ;	direct compare
   1084 4B                 3258 	ld	c,e
   1085 7D                 3259 	ld	a,l
   1086 91                 3260 	sub	a,c
   1087 20 03              3261 	jr	NZ,00188$
   1089 C1                 3262 	pop	bc
   108A 18 03              3263 	jr	00189$
   108C                    3264 00188$:
   108C C1                 3265 	pop	bc
   108D 18 17              3266 	jr	00135$
   108F                    3267 00189$:
   108F 21r71s00           3268 	ld	hl,#0x0001 + _autoDoors
   1092 6E                 3269 	ld	l,(hl)
   1093 C5                 3270 	push	bc
                           3271 ;	direct compare
   1094 4A                 3272 	ld	c,d
   1095 7D                 3273 	ld	a,l
   1096 91                 3274 	sub	a,c
   1097 20 03              3275 	jr	NZ,00190$
   1099 C1                 3276 	pop	bc
   109A 18 03              3277 	jr	00191$
   109C                    3278 00190$:
   109C C1                 3279 	pop	bc
   109D 18 07              3280 	jr	00135$
   109F                    3281 00191$:
   109F DD 36 FE 01        3282 	ld	-2 (ix),#0x01
   10A3 C3r16s11           3283 	jp	00139$
   10A6                    3284 00135$:
                           3285 ;main.c:1054: else if ((tx3==(*ad1_cx)) && (ty3==(*ad1_cy))) {res=NOK;}
   10A6 21r74s00           3286 	ld	hl,#0x0004 + _autoDoors
   10A9 6E                 3287 	ld	l,(hl)
   10AA C5                 3288 	push	bc
                           3289 ;	direct compare
   10AB 4B                 3290 	ld	c,e
   10AC 7D                 3291 	ld	a,l
   10AD 91                 3292 	sub	a,c
   10AE 20 03              3293 	jr	NZ,00192$
   10B0 C1                 3294 	pop	bc
   10B1 18 03              3295 	jr	00193$
   10B3                    3296 00192$:
   10B3 C1                 3297 	pop	bc
   10B4 18 16              3298 	jr	00131$
   10B6                    3299 00193$:
   10B6 21r75s00           3300 	ld	hl,#0x0001 + 0x0004 + _autoDoors
   10B9 6E                 3301 	ld	l,(hl)
   10BA C5                 3302 	push	bc
                           3303 ;	direct compare
   10BB 4A                 3304 	ld	c,d
   10BC 7D                 3305 	ld	a,l
   10BD 91                 3306 	sub	a,c
   10BE 20 03              3307 	jr	NZ,00194$
   10C0 C1                 3308 	pop	bc
   10C1 18 03              3309 	jr	00195$
   10C3                    3310 00194$:
   10C3 C1                 3311 	pop	bc
   10C4 18 06              3312 	jr	00131$
   10C6                    3313 00195$:
   10C6 DD 36 FE 01        3314 	ld	-2 (ix),#0x01
   10CA 18 4A              3315 	jr	00139$
   10CC                    3316 00131$:
                           3317 ;main.c:1055: else if ((tx3==(*ad2_cx)) && (ty3==(*ad2_cy))) {res=NOK;}
   10CC 21r78s00           3318 	ld	hl,#0x0008 + _autoDoors
   10CF 6E                 3319 	ld	l,(hl)
   10D0 C5                 3320 	push	bc
                           3321 ;	direct compare
   10D1 4B                 3322 	ld	c,e
   10D2 7D                 3323 	ld	a,l
   10D3 91                 3324 	sub	a,c
   10D4 20 03              3325 	jr	NZ,00196$
   10D6 C1                 3326 	pop	bc
   10D7 18 03              3327 	jr	00197$
   10D9                    3328 00196$:
   10D9 C1                 3329 	pop	bc
   10DA 18 16              3330 	jr	00127$
   10DC                    3331 00197$:
   10DC 21r79s00           3332 	ld	hl,#0x0001 + 0x0008 + _autoDoors
   10DF 6E                 3333 	ld	l,(hl)
   10E0 C5                 3334 	push	bc
                           3335 ;	direct compare
   10E1 4A                 3336 	ld	c,d
   10E2 7D                 3337 	ld	a,l
   10E3 91                 3338 	sub	a,c
   10E4 20 03              3339 	jr	NZ,00198$
   10E6 C1                 3340 	pop	bc
   10E7 18 03              3341 	jr	00199$
   10E9                    3342 00198$:
   10E9 C1                 3343 	pop	bc
   10EA 18 06              3344 	jr	00127$
   10EC                    3345 00199$:
   10EC DD 36 FE 01        3346 	ld	-2 (ix),#0x01
   10F0 18 24              3347 	jr	00139$
   10F2                    3348 00127$:
                           3349 ;main.c:1056: else if ((tx3==(*ad3_cx)) && (ty3==(*ad3_cy))) {res=NOK;}
   10F2 21r7Cs00           3350 	ld	hl,#0x000c + _autoDoors
   10F5 6E                 3351 	ld	l,(hl)
   10F6 C5                 3352 	push	bc
                           3353 ;	direct compare
   10F7 4B                 3354 	ld	c,e
   10F8 7D                 3355 	ld	a,l
   10F9 91                 3356 	sub	a,c
   10FA 20 03              3357 	jr	NZ,00200$
   10FC C1                 3358 	pop	bc
   10FD 18 03              3359 	jr	00201$
   10FF                    3360 00200$:
   10FF C1                 3361 	pop	bc
   1100 18 14              3362 	jr	00139$
   1102                    3363 00201$:
   1102 21r7Ds00           3364 	ld	hl,#0x0001 + 0x000c + _autoDoors
   1105 6E                 3365 	ld	l,(hl)
   1106 C5                 3366 	push	bc
                           3367 ;	direct compare
   1107 4A                 3368 	ld	c,d
   1108 7D                 3369 	ld	a,l
   1109 91                 3370 	sub	a,c
   110A 20 03              3371 	jr	NZ,00202$
   110C C1                 3372 	pop	bc
   110D 18 03              3373 	jr	00203$
   110F                    3374 00202$:
   110F C1                 3375 	pop	bc
   1110 18 04              3376 	jr	00139$
   1112                    3377 00203$:
   1112 DD 36 FE 01        3378 	ld	-2 (ix),#0x01
   1116                    3379 00139$:
                           3380 ;main.c:1059: return res;
   1116 DD 6E FE           3381 	ld	l,-2 (ix)
   1119 DD F9              3382 	ld	sp,ix
   111B DD E1              3383 	pop	ix
   111D C9                 3384 	ret
   111E                    3385 _isCopDirectionFree_end::
                           3386 ;main.c:1062: void changePlayerDirection(char direction)
                           3387 ;	---------------------------------
                           3388 ; Function changePlayerDirection
                           3389 ; ---------------------------------
   111E                    3390 _changePlayerDirection_start::
   111E                    3391 _changePlayerDirection:
   111E DD E5              3392 	push	ix
   1120 DD 21 00 00        3393 	ld	ix,#0
   1124 DD 39              3394 	add	ix,sp
                           3395 ;main.c:1064: if (isPlayerDirectionFree(direction)==OK) 
   1126 DD 7E 04           3396 	ld	a,4 (ix)
   1129 F5                 3397 	push	af
   112A 33                 3398 	inc	sp
   112B CDr16s09           3399 	call	_isPlayerDirectionFree
   112E 33                 3400 	inc	sp
   112F AF                 3401 	xor	a,a
   1130 B5                 3402 	or	a,l
   1131 20 0B              3403 	jr	NZ,00103$
                           3404 ;main.c:1066: player.oldDirection = player.direction;
   1133 21r0Es00           3405 	ld	hl,#0x000c + _player
   1136 7E                 3406 	ld	a,(hl)
   1137 2B                 3407 	dec	hl
   1138 77                 3408 	ld	(hl),a
                           3409 ;main.c:1067: player.direction = direction;
   1139 DD 7E 04           3410 	ld	a,4 (ix)
   113C 23                 3411 	inc	hl
   113D 77                 3412 	ld	(hl),a
   113E                    3413 00103$:
   113E DD E1              3414 	pop	ix
   1140 C9                 3415 	ret
   1141                    3416 _changePlayerDirection_end::
                           3417 ;main.c:1072: void movePlayer(void)
                           3418 ;	---------------------------------
                           3419 ; Function movePlayer
                           3420 ; ---------------------------------
   1141                    3421 _movePlayer_start::
   1141                    3422 _movePlayer:
                           3423 ;main.c:1076: direction = player.direction;
   1141 21r0Es00           3424 	ld	hl,#0x000c + _player
   1144 4E                 3425 	ld	c, (hl)
                           3426 ;main.c:1077: player.lastMvt = 99;
   1145 21r20s00           3427 	ld	hl,#0x001e + _player
   1148 36 63              3428 	ld	(hl),#0x63
                           3429 ;main.c:1079: if (direction==DROITE)
                           3430 ;main.c:1081: if (isPlayerDirectionFree(direction)!=NOK)		
   114A 79                 3431 	ld	a,c
   114B FE 03              3432 	cp	a,#0x03
   114D 20 41              3433 	jr	NZ,00140$
   114F F5                 3434 	push	af
   1150 33                 3435 	inc	sp
   1151 CDr16s09           3436 	call	_isPlayerDirectionFree
   1154 33                 3437 	inc	sp
   1155 7D                 3438 	ld	a,l
   1156 D6 01              3439 	sub	a,#0x01
   1158 C8                 3440 	ret	Z
                           3441 ;main.c:1083: if (player.px>=232) // Teleport droite
   1159 3Ar02s00           3442 	ld	a,(#_player)
   115C D6 E8              3443 	sub	a,#0xE8
   115E 38 07              3444 	jr	C,00106$
                           3445 ;main.c:1084: player.px=0;
   1160 21r02s00           3446 	ld	hl,#_player
   1163 36 00              3447 	ld	(hl),#0x00
   1165 18 23              3448 	jr	00107$
   1167                    3449 00106$:
                           3450 ;main.c:1086: if ((player.oldDirection==HAUT) || (player.oldDirection==BAS)) {player.px+=2;player.oldDirection=STOP;} else player.px++;
   1167 21r0Ds00           3451 	ld	hl,#0x000b + _player
   116A 6E                 3452 	ld	l,(hl)
   116B AF                 3453 	xor	a,a
   116C B5                 3454 	or	a,l
   116D 28 05              3455 	jr	Z,00101$
   116F 7D                 3456 	ld	a,l
   1170 D6 01              3457 	sub	a,#0x01
   1172 20 0F              3458 	jr	NZ,00102$
   1174                    3459 00101$:
   1174 3Ar02s00           3460 	ld	a,(#_player)
   1177 C6 02              3461 	add	a,#0x02
   1179 32r02s00           3462 	ld	(#_player),a
   117C 21r0Ds00           3463 	ld	hl,#0x000b + _player
   117F 36 04              3464 	ld	(hl),#0x04
   1181 18 07              3465 	jr	00107$
   1183                    3466 00102$:
   1183 3Ar02s00           3467 	ld	a,(#_player)
   1186 3C                 3468 	inc	a
   1187 32r02s00           3469 	ld	(#_player),a
   118A                    3470 00107$:
                           3471 ;main.c:1088: player.lastMvt = HORIZONTAL;
   118A 21r20s00           3472 	ld	hl,#0x001e + _player
   118D 36 00              3473 	ld	(hl),#0x00
   118F C9                 3474 	ret
   1190                    3475 00140$:
                           3476 ;main.c:1093: if (direction==GAUCHE)
                           3477 ;main.c:1095: if (isPlayerDirectionFree(direction)!=NOK)		
   1190 79                 3478 	ld	a,c
   1191 FE 02              3479 	cp	a,#0x02
   1193 20 43              3480 	jr	NZ,00137$
   1195 F5                 3481 	push	af
   1196 33                 3482 	inc	sp
   1197 CDr16s09           3483 	call	_isPlayerDirectionFree
   119A 33                 3484 	inc	sp
   119B 7D                 3485 	ld	a,l
   119C D6 01              3486 	sub	a,#0x01
   119E C8                 3487 	ret	Z
                           3488 ;main.c:1097: if (player.px<=8)
   119F 21r02s00           3489 	ld	hl,#_player
   11A2 6E                 3490 	ld	l,(hl)
   11A3 3E 08              3491 	ld	a,#0x08
   11A5 95                 3492 	sub	a,l
   11A6 38 07              3493 	jr	C,00115$
                           3494 ;main.c:1098: player.px=30<<3;
   11A8 21r02s00           3495 	ld	hl,#_player
   11AB 36 F0              3496 	ld	(hl),#0xF0
   11AD 18 23              3497 	jr	00116$
   11AF                    3498 00115$:
                           3499 ;main.c:1100: if ((player.oldDirection==HAUT) || (player.oldDirection==BAS)) {player.px-=2;player.oldDirection=STOP;} else player.px--;
   11AF 21r0Ds00           3500 	ld	hl,#0x000b + _player
   11B2 6E                 3501 	ld	l,(hl)
   11B3 AF                 3502 	xor	a,a
   11B4 B5                 3503 	or	a,l
   11B5 28 05              3504 	jr	Z,00110$
   11B7 7D                 3505 	ld	a,l
   11B8 D6 01              3506 	sub	a,#0x01
   11BA 20 0F              3507 	jr	NZ,00111$
   11BC                    3508 00110$:
   11BC 3Ar02s00           3509 	ld	a,(#_player)
   11BF C6 FE              3510 	add	a,#0xFE
   11C1 32r02s00           3511 	ld	(#_player),a
   11C4 21r0Ds00           3512 	ld	hl,#0x000b + _player
   11C7 36 04              3513 	ld	(hl),#0x04
   11C9 18 07              3514 	jr	00116$
   11CB                    3515 00111$:
   11CB 3Ar02s00           3516 	ld	a,(#_player)
   11CE 3D                 3517 	dec	a
   11CF 32r02s00           3518 	ld	(#_player),a
   11D2                    3519 00116$:
                           3520 ;main.c:1102: player.lastMvt = HORIZONTAL;
   11D2 21r20s00           3521 	ld	hl,#0x001e + _player
   11D5 36 00              3522 	ld	(hl),#0x00
   11D7 C9                 3523 	ret
   11D8                    3524 00137$:
                           3525 ;main.c:1106: if (direction==BAS)
                           3526 ;main.c:1108: if (isPlayerDirectionFree(direction)!=NOK)
   11D8 79                 3527 	ld	a,c
   11D9 FE 01              3528 	cp	a,#0x01
   11DB 20 33              3529 	jr	NZ,00134$
   11DD F5                 3530 	push	af
   11DE 33                 3531 	inc	sp
   11DF CDr16s09           3532 	call	_isPlayerDirectionFree
   11E2 33                 3533 	inc	sp
   11E3 7D                 3534 	ld	a,l
   11E4 D6 01              3535 	sub	a,#0x01
   11E6 C8                 3536 	ret	Z
                           3537 ;main.c:1110: if ((player.oldDirection==GAUCHE) || (player.oldDirection==DROITE)) {player.py+=2;player.oldDirection=STOP;} else player.py++;
   11E7 21r0Ds00           3538 	ld	hl,#0x000b + _player
   11EA 6E                 3539 	ld	l,(hl)
   11EB 7D                 3540 	ld	a,l
   11EC FE 02              3541 	cp	a,#0x02
   11EE 28 04              3542 	jr	Z,00119$
   11F0 D6 03              3543 	sub	a,#0x03
   11F2 20 0F              3544 	jr	NZ,00120$
   11F4                    3545 00119$:
   11F4 3Ar03s00           3546 	ld	a,(#0x0001 + _player)
   11F7 C6 02              3547 	add	a,#0x02
   11F9 32r03s00           3548 	ld	(#0x0001 + _player),a
   11FC 21r0Ds00           3549 	ld	hl,#0x000b + _player
   11FF 36 04              3550 	ld	(hl),#0x04
   1201 18 07              3551 	jr	00121$
   1203                    3552 00120$:
   1203 3Ar03s00           3553 	ld	a,(#0x0001 + _player)
   1206 3C                 3554 	inc	a
   1207 32r03s00           3555 	ld	(#0x0001 + _player),a
   120A                    3556 00121$:
                           3557 ;main.c:1112: player.lastMvt = VERTICAL;
   120A 21r20s00           3558 	ld	hl,#0x001e + _player
   120D 36 01              3559 	ld	(hl),#0x01
   120F C9                 3560 	ret
   1210                    3561 00134$:
                           3562 ;main.c:1116: if (direction==HAUT)
   1210 AF                 3563 	xor	a,a
   1211 B1                 3564 	or	a,c
   1212 C0                 3565 	ret	NZ
                           3566 ;main.c:1118: if (isPlayerDirectionFree(direction)!=NOK)
   1213 79                 3567 	ld	a,c
   1214 F5                 3568 	push	af
   1215 33                 3569 	inc	sp
   1216 CDr16s09           3570 	call	_isPlayerDirectionFree
   1219 33                 3571 	inc	sp
   121A 7D                 3572 	ld	a,l
   121B D6 01              3573 	sub	a,#0x01
   121D C8                 3574 	ret	Z
                           3575 ;main.c:1120: if ((player.oldDirection==GAUCHE) || (player.oldDirection==DROITE)) {player.py-=2;player.oldDirection=STOP;} else player.py--;
   121E 21r0Ds00           3576 	ld	hl,#0x000b + _player
   1221 6E                 3577 	ld	l,(hl)
   1222 7D                 3578 	ld	a,l
   1223 FE 02              3579 	cp	a,#0x02
   1225 28 04              3580 	jr	Z,00125$
   1227 D6 03              3581 	sub	a,#0x03
   1229 20 0F              3582 	jr	NZ,00126$
   122B                    3583 00125$:
   122B 3Ar03s00           3584 	ld	a,(#0x0001 + _player)
   122E C6 FE              3585 	add	a,#0xFE
   1230 32r03s00           3586 	ld	(#0x0001 + _player),a
   1233 21r0Ds00           3587 	ld	hl,#0x000b + _player
   1236 36 04              3588 	ld	(hl),#0x04
   1238 18 07              3589 	jr	00127$
   123A                    3590 00126$:
   123A 3Ar03s00           3591 	ld	a,(#0x0001 + _player)
   123D 3D                 3592 	dec	a
   123E 32r03s00           3593 	ld	(#0x0001 + _player),a
   1241                    3594 00127$:
                           3595 ;main.c:1122: player.lastMvt = VERTICAL;
   1241 21r20s00           3596 	ld	hl,#0x001e + _player
   1244 36 01              3597 	ld	(hl),#0x01
   1246 C9                 3598 	ret
   1247                    3599 _movePlayer_end::
                           3600 ;main.c:1128: void animatePlayer()
                           3601 ;	---------------------------------
                           3602 ; Function animatePlayer
                           3603 ; ---------------------------------
   1247                    3604 _animatePlayer_start::
   1247                    3605 _animatePlayer:
                           3606 ;main.c:1130: if (animateSprite%10==0) player.currentAnim+=4;
   1247 3E 0A              3607 	ld	a,#0x0A
   1249 F5                 3608 	push	af
   124A 33                 3609 	inc	sp
   124B 3Ar8Cs00           3610 	ld	a,(_animateSprite)
   124E F5                 3611 	push	af
   124F 33                 3612 	inc	sp
   1250 CDr00s00           3613 	call	__moduchar_rrx_s
   1253 F1                 3614 	pop	af
   1254 AF                 3615 	xor	a,a
   1255 B5                 3616 	or	a,l
   1256 20 08              3617 	jr	NZ,00102$
   1258 3Ar21s00           3618 	ld	a,(#0x001f + _player)
   125B C6 04              3619 	add	a,#0x04
   125D 32r21s00           3620 	ld	(#0x001f + _player),a
   1260                    3621 00102$:
                           3622 ;main.c:1131: if (player.currentAnim==8) player.currentAnim=0;
   1260 3Ar21s00           3623 	ld	a,(#0x001f + _player)
   1263 D6 08              3624 	sub	a,#0x08
   1265 20 05              3625 	jr	NZ,00104$
   1267 21r21s00           3626 	ld	hl,#0x001f + _player
   126A 36 00              3627 	ld	(hl),#0x00
   126C                    3628 00104$:
                           3629 ;main.c:1133: if (player.regard==GAUCHE)
   126C 3Ar0Fs00           3630 	ld	a,(#0x000d + _player)
   126F D6 02              3631 	sub	a,#0x02
   1271 20 26              3632 	jr	NZ,00116$
                           3633 ;main.c:1135: if (player.lastMvt!=99)
   1273 21r20s00           3634 	ld	hl,#0x001e + _player
   1276 6E                 3635 	ld	l,(hl)
   1277 7D                 3636 	ld	a,l
   1278 D6 63              3637 	sub	a,#0x63
   127A 28 16              3638 	jr	Z,00109$
                           3639 ;main.c:1136: if (player.lastMvt==HORIZONTAL)  player.pattern2=112+player.currentAnim;
   127C AF                 3640 	xor	a,a
   127D B5                 3641 	or	a,l
   127E 20 0A              3642 	jr	NZ,00106$
   1280 3Ar21s00           3643 	ld	a,(#0x001f + _player)
   1283 C6 70              3644 	add	a,#0x70
   1285 32r0As00           3645 	ld	(#0x0008 + _player),a
   1288 18 08              3646 	jr	00109$
   128A                    3647 00106$:
                           3648 ;main.c:1137: else player.pattern2=120+player.currentAnim;
   128A 3Ar21s00           3649 	ld	a,(#0x001f + _player)
   128D C6 78              3650 	add	a,#0x78
   128F 32r0As00           3651 	ld	(#0x0008 + _player),a
   1292                    3652 00109$:
                           3653 ;main.c:1138: player.pattern1 = 24;
   1292 21r09s00           3654 	ld	hl,#0x0007 + _player
   1295 36 18              3655 	ld	(hl),#0x18
   1297 18 24              3656 	jr	00117$
   1299                    3657 00116$:
                           3658 ;main.c:1142: if (player.lastMvt!=99)
   1299 21r20s00           3659 	ld	hl,#0x001e + _player
   129C 6E                 3660 	ld	l,(hl)
   129D 7D                 3661 	ld	a,l
   129E D6 63              3662 	sub	a,#0x63
   12A0 28 16              3663 	jr	Z,00114$
                           3664 ;main.c:1143: if (player.lastMvt==HORIZONTAL)  player.pattern2=96+player.currentAnim;
   12A2 AF                 3665 	xor	a,a
   12A3 B5                 3666 	or	a,l
   12A4 20 0A              3667 	jr	NZ,00111$
   12A6 3Ar21s00           3668 	ld	a,(#0x001f + _player)
   12A9 C6 60              3669 	add	a,#0x60
   12AB 32r0As00           3670 	ld	(#0x0008 + _player),a
   12AE 18 08              3671 	jr	00114$
   12B0                    3672 00111$:
                           3673 ;main.c:1144: else player.pattern2=104+player.currentAnim;
   12B0 3Ar21s00           3674 	ld	a,(#0x001f + _player)
   12B3 C6 68              3675 	add	a,#0x68
   12B5 32r0As00           3676 	ld	(#0x0008 + _player),a
   12B8                    3677 00114$:
                           3678 ;main.c:1145: player.pattern1 = 32;
   12B8 21r09s00           3679 	ld	hl,#0x0007 + _player
   12BB 36 20              3680 	ld	(hl),#0x20
   12BD                    3681 00117$:
                           3682 ;main.c:1148: player.colour1 = 7;
   12BD 21r0Bs00           3683 	ld	hl,#0x0009 + _player
   12C0 36 07              3684 	ld	(hl),#0x07
                           3685 ;main.c:1149: player.colour2 = 6;
   12C2 23                 3686 	inc	hl
   12C3 36 06              3687 	ld	(hl),#0x06
   12C5 C9                 3688 	ret
   12C6                    3689 _animatePlayer_end::
                           3690 ;main.c:1152: void renderPlayerDeath()
                           3691 ;	---------------------------------
                           3692 ; Function renderPlayerDeath
                           3693 ; ---------------------------------
   12C6                    3694 _renderPlayerDeath_start::
   12C6                    3695 _renderPlayerDeath:
                           3696 ;main.c:1154: sprites[SPRITE2].y = 204;
   12C6 21r04s00           3697 	ld	hl,#0x0004 + _sprites
   12C9 36 CC              3698 	ld	(hl),#0xCC
                           3699 ;main.c:1155: sprites[SPRITE3].y = 204;
   12CB 21r78s00           3700 	ld	hl,#0x0078 + _sprites
   12CE 36 CC              3701 	ld	(hl),#0xCC
                           3702 ;main.c:1156: sprites[SPRITE4].y = 204;
   12D0 21r08s00           3703 	ld	hl,#0x0008 + _sprites
   12D3 36 CC              3704 	ld	(hl),#0xCC
                           3705 ;main.c:1157: sprites[SPRITE5].y = 204;
   12D5 21r74s00           3706 	ld	hl,#0x0074 + _sprites
   12D8 36 CC              3707 	ld	(hl),#0xCC
                           3708 ;main.c:1158: sprites[SPRITE6].y = 204;
   12DA 21r0Cs00           3709 	ld	hl,#0x000c + _sprites
   12DD 36 CC              3710 	ld	(hl),#0xCC
                           3711 ;main.c:1160: delay(10);
   12DF 21 0A 00           3712 	ld	hl,#0x000A
   12E2 E5                 3713 	push	hl
   12E3 CDr00s00           3714 	call	_delay
   12E6 F1                 3715 	pop	af
                           3716 ;main.c:1161: sprites[SPRITE0].pattern = 33*4;
   12E7 21r02s00           3717 	ld	hl,#0x0002 + _sprites
   12EA 36 84              3718 	ld	(hl),#0x84
                           3719 ;main.c:1162: sprites[SPRITE1].pattern = 32*4;
   12EC 21r7Es00           3720 	ld	hl,#0x007e + _sprites
   12EF 36 80              3721 	ld	(hl),#0x80
                           3722 ;main.c:1163: sprites[SPRITE0].y +=1;
   12F1 3Ar00s00           3723 	ld	a,(#_sprites)
   12F4 3C                 3724 	inc	a
   12F5 32r00s00           3725 	ld	(#_sprites),a
                           3726 ;main.c:1165: delay(10);
   12F8 21 0A 00           3727 	ld	hl,#0x000A
   12FB E5                 3728 	push	hl
   12FC CDr00s00           3729 	call	_delay
   12FF F1                 3730 	pop	af
                           3731 ;main.c:1166: sprites[SPRITE0].pattern = 33*4;
   1300 21r02s00           3732 	ld	hl,#0x0002 + _sprites
   1303 36 84              3733 	ld	(hl),#0x84
                           3734 ;main.c:1167: sprites[SPRITE1].pattern = 34*4;
   1305 21r7Es00           3735 	ld	hl,#0x007e + _sprites
   1308 36 88              3736 	ld	(hl),#0x88
                           3737 ;main.c:1168: sprites[SPRITE0].y +=1;
   130A 3Ar00s00           3738 	ld	a,(#_sprites)
   130D 3C                 3739 	inc	a
   130E 32r00s00           3740 	ld	(#_sprites),a
                           3741 ;main.c:1170: delay(10);
   1311 21 0A 00           3742 	ld	hl,#0x000A
   1314 E5                 3743 	push	hl
   1315 CDr00s00           3744 	call	_delay
   1318 F1                 3745 	pop	af
                           3746 ;main.c:1171: sprites[SPRITE0].pattern = 38*4;
   1319 21r02s00           3747 	ld	hl,#0x0002 + _sprites
   131C 36 98              3748 	ld	(hl),#0x98
                           3749 ;main.c:1172: sprites[SPRITE1].pattern = 35*4;
   131E 21r7Es00           3750 	ld	hl,#0x007e + _sprites
   1321 36 8C              3751 	ld	(hl),#0x8C
                           3752 ;main.c:1173: sprites[SPRITE0].y +=1;
   1323 3Ar00s00           3753 	ld	a,(#_sprites)
   1326 3C                 3754 	inc	a
   1327 32r00s00           3755 	ld	(#_sprites),a
                           3756 ;main.c:1175: delay(10);
   132A 21 0A 00           3757 	ld	hl,#0x000A
   132D E5                 3758 	push	hl
   132E CDr00s00           3759 	call	_delay
   1331 F1                 3760 	pop	af
                           3761 ;main.c:1176: sprites[SPRITE0].pattern = 38*4;
   1332 21r02s00           3762 	ld	hl,#0x0002 + _sprites
   1335 36 98              3763 	ld	(hl),#0x98
                           3764 ;main.c:1177: sprites[SPRITE1].pattern = 36*4;
   1337 21r7Es00           3765 	ld	hl,#0x007e + _sprites
   133A 36 90              3766 	ld	(hl),#0x90
                           3767 ;main.c:1178: sprites[SPRITE0].y +=1;
   133C 3Ar00s00           3768 	ld	a,(#_sprites)
   133F 3C                 3769 	inc	a
   1340 32r00s00           3770 	ld	(#_sprites),a
                           3771 ;main.c:1180: delay(10);
   1343 21 0A 00           3772 	ld	hl,#0x000A
   1346 E5                 3773 	push	hl
   1347 CDr00s00           3774 	call	_delay
   134A F1                 3775 	pop	af
                           3776 ;main.c:1181: sprites[SPRITE0].pattern = 38*4;
   134B 21r02s00           3777 	ld	hl,#0x0002 + _sprites
   134E 36 98              3778 	ld	(hl),#0x98
                           3779 ;main.c:1182: sprites[SPRITE1].pattern = 37*4;
   1350 21r7Es00           3780 	ld	hl,#0x007e + _sprites
   1353 36 94              3781 	ld	(hl),#0x94
                           3782 ;main.c:1183: sprites[SPRITE0].y +=1;
   1355 3Ar00s00           3783 	ld	a,(#_sprites)
   1358 3C                 3784 	inc	a
   1359 32r00s00           3785 	ld	(#_sprites),a
                           3786 ;main.c:1185: delay(10);
   135C 21 0A 00           3787 	ld	hl,#0x000A
   135F E5                 3788 	push	hl
   1360 CDr00s00           3789 	call	_delay
   1363 F1                 3790 	pop	af
                           3791 ;main.c:1186: sprites[SPRITE0].pattern = 38*4;
   1364 21r02s00           3792 	ld	hl,#0x0002 + _sprites
   1367 36 98              3793 	ld	(hl),#0x98
                           3794 ;main.c:1187: sprites[SPRITE1].pattern = 37*4;
   1369 21r7Es00           3795 	ld	hl,#0x007e + _sprites
   136C 36 94              3796 	ld	(hl),#0x94
                           3797 ;main.c:1189: delay(50);
   136E 21 32 00           3798 	ld	hl,#0x0032
   1371 E5                 3799 	push	hl
   1372 CDr00s00           3800 	call	_delay
   1375 F1                 3801 	pop	af
   1376 C9                 3802 	ret
   1377                    3803 _renderPlayerDeath_end::
                           3804 ;main.c:1192: void checkPlayerGameCollisions(void)
                           3805 ;	---------------------------------
                           3806 ; Function checkPlayerGameCollisions
                           3807 ; ---------------------------------
   1377                    3808 _checkPlayerGameCollisions_start::
   1377                    3809 _checkPlayerGameCollisions:
                           3810 ;main.c:1198: s_cop *mycop0 = &cop[0];	
                           3811 ;main.c:1199: byte *cop0_py = &mycop0->py;
                           3812 ;main.c:1200: byte *cop0_px = &mycop0->px;
                           3813 ;main.c:1202: s_cop *mycop1 = &cop[1];	
                           3814 ;main.c:1203: byte *cop1_py = &mycop1->py;
                           3815 ;main.c:1204: byte *cop1_px = &mycop1->px;
                           3816 ;main.c:1206: s_cop *mycop2 = &cop[2];	
                           3817 ;main.c:1207: byte *cop2_py = &mycop2->py;
                           3818 ;main.c:1208: byte *cop2_px = &mycop2->px;
                           3819 ;main.c:1210: s_cop *mycop3 = &cop[3];	
                           3820 ;main.c:1211: byte *cop3_py = &mycop3->py;
                           3821 ;main.c:1212: byte *cop3_px = &mycop3->px;
                           3822 ;main.c:1220: tx1 = (player.px+12) >> 3;
   1377 3Ar02s00           3823 	ld	a,(#_player)
   137A 26 00              3824 	ld	h, #0x00
   137C C6 0C              3825 	add	a,#0x0C
   137E 4F                 3826 	ld	c,a
   137F 7C                 3827 	ld	a,h
   1380 CE 00              3828 	adc	a,#0x00
   1382 67                 3829 	ld	h, a
   1383 69                 3830 	ld	l, c
   1384 CB 2C              3831 	sra	h
   1386 CB 1D              3832 	rr	l
   1388 CB 2C              3833 	sra	h
   138A CB 1D              3834 	rr	l
   138C CB 2C              3835 	sra	h
   138E CB 1D              3836 	rr	l
   1390 4D                 3837 	ld	c,l
                           3838 ;main.c:1221: ty1 = (player.py+12) >> 3;
   1391 3Ar03s00           3839 	ld	a,(#0x0001 + _player)
   1394 26 00              3840 	ld	h, #0x00
   1396 C6 0C              3841 	add	a,#0x0C
   1398 5F                 3842 	ld	e,a
   1399 7C                 3843 	ld	a,h
   139A CE 00              3844 	adc	a,#0x00
   139C 67                 3845 	ld	h, a
   139D 6B                 3846 	ld	l, e
   139E CB 2C              3847 	sra	h
   13A0 CB 1D              3848 	rr	l
   13A2 CB 2C              3849 	sra	h
   13A4 CB 1D              3850 	rr	l
   13A6 CB 2C              3851 	sra	h
   13A8 CB 1D              3852 	rr	l
   13AA 45                 3853 	ld	b,l
                           3854 ;main.c:1248: disable_nmi();
   13AB C5                 3855 	push	bc
   13AC CDr00s00           3856 	call	_disable_nmi
   13AF C1                 3857 	pop	bc
                           3858 ;main.c:1249: res1 = get_char(tx1,ty1);
   13B0 C5                 3859 	push	bc
   13B1 C5                 3860 	push	bc
   13B2 33                 3861 	inc	sp
   13B3 79                 3862 	ld	a,c
   13B4 F5                 3863 	push	af
   13B5 33                 3864 	inc	sp
   13B6 CDr00s00           3865 	call	_get_char
   13B9 F1                 3866 	pop	af
   13BA C1                 3867 	pop	bc
                           3868 ;main.c:1250: if (res1==CHAR_PILL)
   13BB 7D                 3869 	ld	a, l
                           3870 ;main.c:1252: put_char(tx1,ty1,CHAR_VIDE);			
   13BC D6 3B              3871 	sub	a,#0x3B
   13BE 20 55              3872 	jr	NZ,00108$
   13C0 F5                 3873 	push	af
   13C1 33                 3874 	inc	sp
   13C2 C5                 3875 	push	bc
   13C3 33                 3876 	inc	sp
   13C4 79                 3877 	ld	a,c
   13C5 F5                 3878 	push	af
   13C6 33                 3879 	inc	sp
   13C7 CDr00s00           3880 	call	_put_char
   13CA F1                 3881 	pop	af
   13CB 33                 3882 	inc	sp
                           3883 ;main.c:1253: addScore(2);
   13CC 3E 02              3884 	ld	a,#0x02
   13CE F5                 3885 	push	af
   13CF 33                 3886 	inc	sp
   13D0 CDr6Fs03           3887 	call	_addScore
   13D3 33                 3888 	inc	sp
                           3889 ;main.c:1254: player.nbPillsLevel++;
   13D4 3Ar1Bs00           3890 	ld	a,(#0x0019 + _player)
   13D7 3C                 3891 	inc	a
   13D8 32r1Bs00           3892 	ld	(#0x0019 + _player),a
                           3893 ;main.c:1255: if (sfxEnCours==NON) startsfx(sfx_piece);
   13DB AF                 3894 	xor	a,a
   13DC 21r45s01           3895 	ld	hl,#_sfxEnCours + 0
   13DF B6                 3896 	or	a,(hl)
   13E0 20 08              3897 	jr	NZ,00102$
   13E2 21r00s00           3898 	ld	hl,#_sfx_piece
   13E5 E5                 3899 	push	hl
   13E6 CDrEBs02           3900 	call	_startsfx
   13E9 F1                 3901 	pop	af
   13EA                    3902 00102$:
                           3903 ;main.c:1257: if (player.nbPillsLevel % 40 ==0) {scatterModeTimer=levelParamScatterModeTime;}
   13EA 21r1Bs00           3904 	ld	hl,#0x0019 + _player
   13ED 4E                 3905 	ld	c,(hl)
   13EE C5                 3906 	push	bc
   13EF 06 28              3907 	ld	b, #0x28
   13F1 C5                 3908 	push	bc
   13F2 CDr00s00           3909 	call	__moduchar_rrx_s
   13F5 F1                 3910 	pop	af
   13F6 7D                 3911 	ld	a, l
   13F7 C1                 3912 	pop	bc
   13F8 B7                 3913 	or	a,a
   13F9 20 0C              3914 	jr	NZ,00104$
   13FB 3Ar20s01           3915 	ld	a,(#_levelParamScatterModeTime + 0)
   13FE 32r8Ds00           3916 	ld	(#_scatterModeTimer + 0),a
   1401 3Ar21s01           3917 	ld	a,(#_levelParamScatterModeTime + 1)
   1404 32r8Es00           3918 	ld	(#_scatterModeTimer + 1),a
   1407                    3919 00104$:
                           3920 ;main.c:1258: if (player.nbPillsLevel % 35 ==0) {createBonus();}
   1407 06 23              3921 	ld	b, #0x23
   1409 C5                 3922 	push	bc
   140A CDr00s00           3923 	call	__moduchar_rrx_s
   140D F1                 3924 	pop	af
   140E AF                 3925 	xor	a,a
   140F B5                 3926 	or	a,l
   1410 20 03              3927 	jr	NZ,00108$
   1412 CDrD7s03           3928 	call	_createBonus
   1415                    3929 00108$:
                           3930 ;main.c:1260: enable_nmi();
   1415 CDr00s00           3931 	call	_enable_nmi
                           3932 ;main.c:1265: if 	(	(isCollision(player.px+7,player.py+7,2,2,(*cop0_px)+4,(*cop0_py)+4,7,7)==OK) 
   1418 21r23s00           3933 	ld	hl,#0x0001 + _cop
   141B 4E                 3934 	ld	c, (hl)
   141C 0C                 3935 	inc	c
   141D 0C                 3936 	inc	c
   141E 0C                 3937 	inc	c
   141F 0C                 3938 	inc	c
   1420 21r22s00           3939 	ld	hl,#_cop
   1423 46                 3940 	ld	b, (hl)
   1424 04                 3941 	inc	b
   1425 04                 3942 	inc	b
   1426 04                 3943 	inc	b
   1427 04                 3944 	inc	b
   1428 3Ar03s00           3945 	ld	a,(#0x0001 + _player)
   142B C6 07              3946 	add	a,#0x07
   142D 5F                 3947 	ld	e,a
   142E 3Ar02s00           3948 	ld	a,(#_player)
   1431 C6 07              3949 	add	a,#0x07
   1433 57                 3950 	ld	d,a
   1434 21 07 07           3951 	ld	hl,#0x0707
   1437 E5                 3952 	push	hl
   1438 79                 3953 	ld	a,c
   1439 F5                 3954 	push	af
   143A 33                 3955 	inc	sp
   143B C5                 3956 	push	bc
   143C 33                 3957 	inc	sp
   143D 21 02 02           3958 	ld	hl,#0x0202
   1440 E5                 3959 	push	hl
   1441 7B                 3960 	ld	a,e
   1442 F5                 3961 	push	af
   1443 33                 3962 	inc	sp
   1444 D5                 3963 	push	de
   1445 33                 3964 	inc	sp
   1446 CDr30s06           3965 	call	_isCollision
   1449 F1                 3966 	pop	af
   144A F1                 3967 	pop	af
   144B F1                 3968 	pop	af
   144C F1                 3969 	pop	af
   144D AF                 3970 	xor	a,a
   144E B5                 3971 	or	a,l
   144F CArFDs14           3972 	jp	Z,00109$
                           3973 ;main.c:1266: || (isCollision(player.px+7,player.py+7,2,2,(*cop1_px)+4,(*cop1_py)+4,7,7)==OK) 
   1452 21r30s00           3974 	ld	hl,#0x0001 + 0x000d + _cop
   1455 4E                 3975 	ld	c, (hl)
   1456 0C                 3976 	inc	c
   1457 0C                 3977 	inc	c
   1458 0C                 3978 	inc	c
   1459 0C                 3979 	inc	c
   145A 21r2Fs00           3980 	ld	hl,#0x000d + _cop
   145D 46                 3981 	ld	b, (hl)
   145E 04                 3982 	inc	b
   145F 04                 3983 	inc	b
   1460 04                 3984 	inc	b
   1461 04                 3985 	inc	b
   1462 3Ar03s00           3986 	ld	a,(#0x0001 + _player)
   1465 C6 07              3987 	add	a,#0x07
   1467 5F                 3988 	ld	e,a
   1468 3Ar02s00           3989 	ld	a,(#_player)
   146B C6 07              3990 	add	a,#0x07
   146D 57                 3991 	ld	d,a
   146E 21 07 07           3992 	ld	hl,#0x0707
   1471 E5                 3993 	push	hl
   1472 79                 3994 	ld	a,c
   1473 F5                 3995 	push	af
   1474 33                 3996 	inc	sp
   1475 C5                 3997 	push	bc
   1476 33                 3998 	inc	sp
   1477 21 02 02           3999 	ld	hl,#0x0202
   147A E5                 4000 	push	hl
   147B 7B                 4001 	ld	a,e
   147C F5                 4002 	push	af
   147D 33                 4003 	inc	sp
   147E D5                 4004 	push	de
   147F 33                 4005 	inc	sp
   1480 CDr30s06           4006 	call	_isCollision
   1483 F1                 4007 	pop	af
   1484 F1                 4008 	pop	af
   1485 F1                 4009 	pop	af
   1486 F1                 4010 	pop	af
   1487 AF                 4011 	xor	a,a
   1488 B5                 4012 	or	a,l
   1489 28 72              4013 	jr	Z,00109$
                           4014 ;main.c:1267: || (isCollision(player.px+7,player.py+7,2,2,(*cop2_px)+4,(*cop2_py)+4,7,7)==OK) 
   148B 21r3Ds00           4015 	ld	hl,#0x0001 + 0x001a + _cop
   148E 4E                 4016 	ld	c, (hl)
   148F 0C                 4017 	inc	c
   1490 0C                 4018 	inc	c
   1491 0C                 4019 	inc	c
   1492 0C                 4020 	inc	c
   1493 21r3Cs00           4021 	ld	hl,#0x001a + _cop
   1496 46                 4022 	ld	b, (hl)
   1497 04                 4023 	inc	b
   1498 04                 4024 	inc	b
   1499 04                 4025 	inc	b
   149A 04                 4026 	inc	b
   149B 3Ar03s00           4027 	ld	a,(#0x0001 + _player)
   149E C6 07              4028 	add	a,#0x07
   14A0 5F                 4029 	ld	e,a
   14A1 3Ar02s00           4030 	ld	a,(#_player)
   14A4 C6 07              4031 	add	a,#0x07
   14A6 57                 4032 	ld	d,a
   14A7 21 07 07           4033 	ld	hl,#0x0707
   14AA E5                 4034 	push	hl
   14AB 79                 4035 	ld	a,c
   14AC F5                 4036 	push	af
   14AD 33                 4037 	inc	sp
   14AE C5                 4038 	push	bc
   14AF 33                 4039 	inc	sp
   14B0 21 02 02           4040 	ld	hl,#0x0202
   14B3 E5                 4041 	push	hl
   14B4 7B                 4042 	ld	a,e
   14B5 F5                 4043 	push	af
   14B6 33                 4044 	inc	sp
   14B7 D5                 4045 	push	de
   14B8 33                 4046 	inc	sp
   14B9 CDr30s06           4047 	call	_isCollision
   14BC F1                 4048 	pop	af
   14BD F1                 4049 	pop	af
   14BE F1                 4050 	pop	af
   14BF F1                 4051 	pop	af
   14C0 AF                 4052 	xor	a,a
   14C1 B5                 4053 	or	a,l
   14C2 28 39              4054 	jr	Z,00109$
                           4055 ;main.c:1268: || (isCollision(player.px+7,player.py+7,2,2,(*cop3_px)+4,(*cop3_py)+4,7,7)==OK)  )
   14C4 21r4As00           4056 	ld	hl,#0x0001 + 0x0027 + _cop
   14C7 4E                 4057 	ld	c, (hl)
   14C8 0C                 4058 	inc	c
   14C9 0C                 4059 	inc	c
   14CA 0C                 4060 	inc	c
   14CB 0C                 4061 	inc	c
   14CC 21r49s00           4062 	ld	hl,#0x0027 + _cop
   14CF 46                 4063 	ld	b, (hl)
   14D0 04                 4064 	inc	b
   14D1 04                 4065 	inc	b
   14D2 04                 4066 	inc	b
   14D3 04                 4067 	inc	b
   14D4 3Ar03s00           4068 	ld	a,(#0x0001 + _player)
   14D7 C6 07              4069 	add	a,#0x07
   14D9 5F                 4070 	ld	e,a
   14DA 3Ar02s00           4071 	ld	a,(#_player)
   14DD C6 07              4072 	add	a,#0x07
   14DF 57                 4073 	ld	d,a
   14E0 21 07 07           4074 	ld	hl,#0x0707
   14E3 E5                 4075 	push	hl
   14E4 79                 4076 	ld	a,c
   14E5 F5                 4077 	push	af
   14E6 33                 4078 	inc	sp
   14E7 C5                 4079 	push	bc
   14E8 33                 4080 	inc	sp
   14E9 21 02 02           4081 	ld	hl,#0x0202
   14EC E5                 4082 	push	hl
   14ED 7B                 4083 	ld	a,e
   14EE F5                 4084 	push	af
   14EF 33                 4085 	inc	sp
   14F0 D5                 4086 	push	de
   14F1 33                 4087 	inc	sp
   14F2 CDr30s06           4088 	call	_isCollision
   14F5 F1                 4089 	pop	af
   14F6 F1                 4090 	pop	af
   14F7 F1                 4091 	pop	af
   14F8 F1                 4092 	pop	af
   14F9 AF                 4093 	xor	a,a
   14FA B5                 4094 	or	a,l
   14FB 20 1D              4095 	jr	NZ,00110$
   14FD                    4096 00109$:
                           4097 ;main.c:1272: stopmusic();
   14FD CDr2Cs02           4098 	call	_stopmusic
                           4099 ;main.c:1273: startmusic(music_looseLife,LOOP_OFF);
   1500 3E 00              4100 	ld	a,#0x00
   1502 F5                 4101 	push	af
   1503 33                 4102 	inc	sp
   1504 21r00s00           4103 	ld	hl,#_music_looseLife
   1507 E5                 4104 	push	hl
   1508 CDr71s02           4105 	call	_startmusic
   150B F1                 4106 	pop	af
   150C 33                 4107 	inc	sp
                           4108 ;main.c:1274: renderPlayerDeath();
   150D CDrC6s12           4109 	call	_renderPlayerDeath
                           4110 ;main.c:1275: workflow = W_RETRY;
   1510 21r99s00           4111 	ld	hl,#_workflow + 0
   1513 36 06              4112 	ld	(hl), #0x06
                           4113 ;main.c:1276: player.direction=STOP;
   1515 21r0Es00           4114 	ld	hl,#0x000c + _player
   1518 36 04              4115 	ld	(hl),#0x04
   151A                    4116 00110$:
                           4117 ;main.c:1279: if ((isCollision(player.px+4,player.py+4,8,8,bonus.px,bonus.py,16,16)==OK) && (bonus.actif==OK) )
   151A 21r86s00           4118 	ld	hl,#0x0005 + _bonus
   151D 4E                 4119 	ld	c,(hl)
   151E 2B                 4120 	dec	hl
   151F 46                 4121 	ld	b,(hl)
   1520 21r03s00           4122 	ld	hl,#0x0001 + _player
   1523 5E                 4123 	ld	e, (hl)
   1524 1C                 4124 	inc	e
   1525 1C                 4125 	inc	e
   1526 1C                 4126 	inc	e
   1527 1C                 4127 	inc	e
   1528 21r02s00           4128 	ld	hl,#_player
   152B 56                 4129 	ld	d, (hl)
   152C 14                 4130 	inc	d
   152D 14                 4131 	inc	d
   152E 14                 4132 	inc	d
   152F 14                 4133 	inc	d
   1530 21 10 10           4134 	ld	hl,#0x1010
   1533 E5                 4135 	push	hl
   1534 79                 4136 	ld	a,c
   1535 F5                 4137 	push	af
   1536 33                 4138 	inc	sp
   1537 C5                 4139 	push	bc
   1538 33                 4140 	inc	sp
   1539 21 08 08           4141 	ld	hl,#0x0808
   153C E5                 4142 	push	hl
   153D 7B                 4143 	ld	a,e
   153E F5                 4144 	push	af
   153F 33                 4145 	inc	sp
   1540 D5                 4146 	push	de
   1541 33                 4147 	inc	sp
   1542 CDr30s06           4148 	call	_isCollision
   1545 F1                 4149 	pop	af
   1546 F1                 4150 	pop	af
   1547 F1                 4151 	pop	af
   1548 F1                 4152 	pop	af
   1549 AF                 4153 	xor	a,a
   154A B5                 4154 	or	a,l
   154B C0                 4155 	ret	NZ
   154C 3Ar81s00           4156 	ld	a,(#_bonus)
   154F B7                 4157 	or	a,a
   1550 C0                 4158 	ret	NZ
                           4159 ;main.c:1281: if (bonus.pattern==BONUS1)
   1551 21r87s00           4160 	ld	hl,#0x0006 + _bonus
   1554 4E                 4161 	ld	c,(hl)
   1555 79                 4162 	ld	a,c
   1556 D6 30              4163 	sub	a,#0x30
   1558 20 04              4164 	jr	NZ,00174$
   155A 3E 01              4165 	ld	a,#0x01
   155C 18 01              4166 	jr	00175$
   155E                    4167 00174$:
   155E AF                 4168 	xor	a,a
   155F                    4169 00175$:
   155F 47                 4170 	ld	b,a
   1560 B7                 4171 	or	a,a
   1561 28 14              4172 	jr	Z,00115$
                           4173 ;main.c:1283: cop[0].pause=levelParamCopFreezeBonus;
   1563 21r22s01           4174 	ld	hl,#_levelParamCopFreezeBonus + 0
   1566 5E                 4175 	ld	e,(hl)
   1567 21r2Es00           4176 	ld	hl,#0x000c + _cop
   156A 73                 4177 	ld	(hl),e
                           4178 ;main.c:1284: cop[1].pause=levelParamCopFreezeBonus;
   156B 21r3Bs00           4179 	ld	hl,#0x0019 + _cop
   156E 73                 4180 	ld	(hl),e
                           4181 ;main.c:1285: cop[2].pause=levelParamCopFreezeBonus;
   156F 21r48s00           4182 	ld	hl,#0x0026 + _cop
   1572 73                 4183 	ld	(hl),e
                           4184 ;main.c:1286: cop[3].pause=levelParamCopFreezeBonus;
   1573 21r55s00           4185 	ld	hl,#0x0033 + _cop
   1576 73                 4186 	ld	(hl),e
   1577                    4187 00115$:
                           4188 ;main.c:1290: if (bonus.pattern==BONUS1) addScore(10);
   1577 AF                 4189 	xor	a,a
   1578 B0                 4190 	or	a,b
   1579 28 0B              4191 	jr	Z,00143$
   157B 3E 0A              4192 	ld	a,#0x0A
   157D F5                 4193 	push	af
   157E 33                 4194 	inc	sp
   157F CDr6Fs03           4195 	call	_addScore
   1582 33                 4196 	inc	sp
   1583 C3r0Cs16           4197 	jp	00144$
   1586                    4198 00143$:
                           4199 ;main.c:1291: else if (bonus.pattern==BONUS2) addScore(20);
   1586 79                 4200 	ld	a,c
   1587 D6 34              4201 	sub	a,#0x34
   1589 20 0B              4202 	jr	NZ,00140$
   158B 3E 14              4203 	ld	a,#0x14
   158D F5                 4204 	push	af
   158E 33                 4205 	inc	sp
   158F CDr6Fs03           4206 	call	_addScore
   1592 33                 4207 	inc	sp
   1593 C3r0Cs16           4208 	jp	00144$
   1596                    4209 00140$:
                           4210 ;main.c:1292: else if (bonus.pattern==BONUS3) addScore(30);
   1596 79                 4211 	ld	a,c
   1597 D6 38              4212 	sub	a,#0x38
   1599 20 0A              4213 	jr	NZ,00137$
   159B 3E 1E              4214 	ld	a,#0x1E
   159D F5                 4215 	push	af
   159E 33                 4216 	inc	sp
   159F CDr6Fs03           4217 	call	_addScore
   15A2 33                 4218 	inc	sp
   15A3 18 67              4219 	jr	00144$
   15A5                    4220 00137$:
                           4221 ;main.c:1293: else if (bonus.pattern==BONUS4) addScore(50);
   15A5 79                 4222 	ld	a,c
   15A6 D6 3C              4223 	sub	a,#0x3C
   15A8 20 0A              4224 	jr	NZ,00134$
   15AA 3E 32              4225 	ld	a,#0x32
   15AC F5                 4226 	push	af
   15AD 33                 4227 	inc	sp
   15AE CDr6Fs03           4228 	call	_addScore
   15B1 33                 4229 	inc	sp
   15B2 18 58              4230 	jr	00144$
   15B4                    4231 00134$:
                           4232 ;main.c:1294: else if (bonus.pattern==BONUS5) addScore(60);
   15B4 79                 4233 	ld	a,c
   15B5 D6 40              4234 	sub	a,#0x40
   15B7 20 0A              4235 	jr	NZ,00131$
   15B9 3E 3C              4236 	ld	a,#0x3C
   15BB F5                 4237 	push	af
   15BC 33                 4238 	inc	sp
   15BD CDr6Fs03           4239 	call	_addScore
   15C0 33                 4240 	inc	sp
   15C1 18 49              4241 	jr	00144$
   15C3                    4242 00131$:
                           4243 ;main.c:1295: else if (bonus.pattern==BONUS6) addScore(70);
   15C3 79                 4244 	ld	a,c
   15C4 D6 44              4245 	sub	a,#0x44
   15C6 20 0A              4246 	jr	NZ,00128$
   15C8 3E 46              4247 	ld	a,#0x46
   15CA F5                 4248 	push	af
   15CB 33                 4249 	inc	sp
   15CC CDr6Fs03           4250 	call	_addScore
   15CF 33                 4251 	inc	sp
   15D0 18 3A              4252 	jr	00144$
   15D2                    4253 00128$:
                           4254 ;main.c:1296: else if (bonus.pattern==BONUS7) addScore(100);
   15D2 79                 4255 	ld	a,c
   15D3 D6 48              4256 	sub	a,#0x48
   15D5 20 0A              4257 	jr	NZ,00125$
   15D7 3E 64              4258 	ld	a,#0x64
   15D9 F5                 4259 	push	af
   15DA 33                 4260 	inc	sp
   15DB CDr6Fs03           4261 	call	_addScore
   15DE 33                 4262 	inc	sp
   15DF 18 2B              4263 	jr	00144$
   15E1                    4264 00125$:
                           4265 ;main.c:1297: else if (bonus.pattern==BONUS8) addScore(150);
   15E1 79                 4266 	ld	a,c
   15E2 D6 4C              4267 	sub	a,#0x4C
   15E4 20 0A              4268 	jr	NZ,00122$
   15E6 3E 96              4269 	ld	a,#0x96
   15E8 F5                 4270 	push	af
   15E9 33                 4271 	inc	sp
   15EA CDr6Fs03           4272 	call	_addScore
   15ED 33                 4273 	inc	sp
   15EE 18 1C              4274 	jr	00144$
   15F0                    4275 00122$:
                           4276 ;main.c:1298: else if (bonus.pattern==BONUS9) addScore(200);
   15F0 79                 4277 	ld	a,c
   15F1 D6 50              4278 	sub	a,#0x50
   15F3 20 0A              4279 	jr	NZ,00119$
   15F5 3E C8              4280 	ld	a,#0xC8
   15F7 F5                 4281 	push	af
   15F8 33                 4282 	inc	sp
   15F9 CDr6Fs03           4283 	call	_addScore
   15FC 33                 4284 	inc	sp
   15FD 18 0D              4285 	jr	00144$
   15FF                    4286 00119$:
                           4287 ;main.c:1299: else if (bonus.pattern==BONUS10) addScore(500);	
   15FF 79                 4288 	ld	a,c
   1600 D6 54              4289 	sub	a,#0x54
   1602 20 08              4290 	jr	NZ,00144$
   1604 3E F4              4291 	ld	a,#0xF4
   1606 F5                 4292 	push	af
   1607 33                 4293 	inc	sp
   1608 CDr6Fs03           4294 	call	_addScore
   160B 33                 4295 	inc	sp
   160C                    4296 00144$:
                           4297 ;main.c:1302: startsfxPrio(sfx_bonus);
   160C 21r00s00           4298 	ld	hl,#_sfx_bonus
   160F E5                 4299 	push	hl
   1610 CDrB1s02           4300 	call	_startsfxPrio
   1613 F1                 4301 	pop	af
                           4302 ;main.c:1303: desactivateBonus();
   1614 CDrC2s03           4303 	call	_desactivateBonus
   1617 C9                 4304 	ret
   1618                    4305 _checkPlayerGameCollisions_end::
                           4306 ;main.c:1310: void renderSprite()
                           4307 ;	---------------------------------
                           4308 ; Function renderSprite
                           4309 ; ---------------------------------
   1618                    4310 _renderSprite_start::
   1618                    4311 _renderSprite:
                           4312 ;main.c:1312: sprites[SPRITE0].x = player.px;
   1618 3Ar02s00           4313 	ld	a,(#_player)
   161B 32r01s00           4314 	ld	(#0x0001 + _sprites),a
                           4315 ;main.c:1313: sprites[SPRITE0].y = player.py;		
   161E 21r03s00           4316 	ld	hl,#0x0001 + _player
   1621 4E                 4317 	ld	c,(hl)
   1622 21r00s00           4318 	ld	hl,#_sprites
   1625 71                 4319 	ld	(hl),c
                           4320 ;main.c:1314: sprites[SPRITE0].pattern = player.pattern1;
   1626 3Ar09s00           4321 	ld	a,(#0x0007 + _player)
   1629 32r02s00           4322 	ld	(#0x0002 + _sprites),a
                           4323 ;main.c:1315: sprites[SPRITE0].colour = player.colour1;
   162C 3Ar0Bs00           4324 	ld	a,(#0x0009 + _player)
   162F 32r03s00           4325 	ld	(#0x0003 + _sprites),a
                           4326 ;main.c:1317: sprites[SPRITE1].x = player.px;
   1632 3Ar02s00           4327 	ld	a,(#_player)
   1635 21r7Ds00           4328 	ld	hl,#0x007d + _sprites
   1638 77                 4329 	ld	(hl),a
                           4330 ;main.c:1318: sprites[SPRITE1].y = player.py;		
   1639 2B                 4331 	dec	hl
   163A 71                 4332 	ld	(hl),c
                           4333 ;main.c:1319: sprites[SPRITE1].pattern = player.pattern2;
   163B 3Ar0As00           4334 	ld	a,(#0x0008 + _player)
   163E 32r7Es00           4335 	ld	(#0x007e + _sprites),a
                           4336 ;main.c:1320: sprites[SPRITE1].colour = player.colour2;
   1641 3Ar0Cs00           4337 	ld	a,(#0x000a + _player)
   1644 32r7Fs00           4338 	ld	(#0x007f + _sprites),a
   1647 C9                 4339 	ret
   1648                    4340 _renderSprite_end::
                           4341 ;main.c:1323: void initPlayer(void)
                           4342 ;	---------------------------------
                           4343 ; Function initPlayer
                           4344 ; ---------------------------------
   1648                    4345 _initPlayer_start::
   1648                    4346 _initPlayer:
                           4347 ;main.c:1325: player.px = 21*8;
   1648 21r02s00           4348 	ld	hl,#_player
   164B 36 A8              4349 	ld	(hl),#0xA8
                           4350 ;main.c:1326: player.py = 21*8;
   164D 21r03s00           4351 	ld	hl,#0x0001 + _player
   1650 36 A8              4352 	ld	(hl),#0xA8
                           4353 ;main.c:1327: player.cx = 21;
   1652 23                 4354 	inc	hl
   1653 36 15              4355 	ld	(hl),#0x15
                           4356 ;main.c:1328: player.cy = 21;
   1655 23                 4357 	inc	hl
   1656 36 15              4358 	ld	(hl),#0x15
                           4359 ;main.c:1329: player.oldcx = 0;
   1658 23                 4360 	inc	hl
   1659 36 00              4361 	ld	(hl),#0x00
                           4362 ;main.c:1330: player.oldcy = 0;
   165B 23                 4363 	inc	hl
   165C 36 00              4364 	ld	(hl),#0x00
                           4365 ;main.c:1331: player.regard = GAUCHE;
   165E 21r0Fs00           4366 	ld	hl,#0x000d + _player
   1661 36 02              4367 	ld	(hl),#0x02
                           4368 ;main.c:1332: player.lastMvt = HORIZONTAL;
   1663 21r20s00           4369 	ld	hl,#0x001e + _player
   1666 36 00              4370 	ld	(hl),#0x00
                           4371 ;main.c:1333: player.oldDirection=STOP;
   1668 21r0Ds00           4372 	ld	hl,#0x000b + _player
   166B 36 04              4373 	ld	(hl),#0x04
                           4374 ;main.c:1334: player.direction=STOP;
   166D 23                 4375 	inc	hl
   166E 36 04              4376 	ld	(hl),#0x04
                           4377 ;main.c:1335: player.nbpills=0;
   1670 23                 4378 	inc	hl
   1671 23                 4379 	inc	hl
   1672 36 00              4380 	ld	(hl),#0x00
                           4381 ;main.c:1336: player.lastDoor1Cx=0;
   1674 23                 4382 	inc	hl
   1675 36 00              4383 	ld	(hl),#0x00
                           4384 ;main.c:1337: player.lastDoor1Cy=0;
   1677 23                 4385 	inc	hl
   1678 36 00              4386 	ld	(hl),#0x00
                           4387 ;main.c:1338: player.lastDoor2Cx=0;
   167A 23                 4388 	inc	hl
   167B 36 00              4389 	ld	(hl),#0x00
                           4390 ;main.c:1339: player.lastDoor2Cy=0;
   167D 23                 4391 	inc	hl
   167E 36 00              4392 	ld	(hl),#0x00
                           4393 ;main.c:1341: player.doorOpen = NOK;
   1680 21r08s00           4394 	ld	hl,#0x0006 + _player
   1683 36 01              4395 	ld	(hl),#0x01
                           4396 ;main.c:1344: player.nbPillsLevel = 0;
   1685 21r1Bs00           4397 	ld	hl,#0x0019 + _player
   1688 36 00              4398 	ld	(hl),#0x00
                           4399 ;main.c:1345: player.nbMoveForBonus = 0;
   168A 23                 4400 	inc	hl
   168B 36 00              4401 	ld	(hl),#0x00
   168D 23                 4402 	inc	hl
   168E 36 00              4403 	ld	(hl),#0x00
                           4404 ;main.c:1347: player.pause=0;
   1690 23                 4405 	inc	hl
   1691 36 00              4406 	ld	(hl),#0x00
                           4407 ;main.c:1349: player.currentAnim=0;
   1693 21r21s00           4408 	ld	hl,#0x001f + _player
   1696 36 00              4409 	ld	(hl),#0x00
                           4410 ;main.c:1351: player.pattern1=120;
   1698 21r09s00           4411 	ld	hl,#0x0007 + _player
   169B 36 78              4412 	ld	(hl),#0x78
                           4413 ;main.c:1352: player.pattern2=28;
   169D 23                 4414 	inc	hl
   169E 36 1C              4415 	ld	(hl),#0x1C
                           4416 ;main.c:1353: player.colour1=7;
   16A0 23                 4417 	inc	hl
   16A1 36 07              4418 	ld	(hl),#0x07
                           4419 ;main.c:1354: player.colour2=6;
   16A3 23                 4420 	inc	hl
   16A4 36 06              4421 	ld	(hl),#0x06
   16A6 C9                 4422 	ret
   16A7                    4423 _initPlayer_end::
                           4424 ;main.c:1358: void reInitPlayer(void)
                           4425 ;	---------------------------------
                           4426 ; Function reInitPlayer
                           4427 ; ---------------------------------
   16A7                    4428 _reInitPlayer_start::
   16A7                    4429 _reInitPlayer:
                           4430 ;main.c:1360: player.px = 21*8;
   16A7 21r02s00           4431 	ld	hl,#_player
   16AA 36 A8              4432 	ld	(hl),#0xA8
                           4433 ;main.c:1361: player.py = 21*8;
   16AC 21r03s00           4434 	ld	hl,#0x0001 + _player
   16AF 36 A8              4435 	ld	(hl),#0xA8
                           4436 ;main.c:1362: player.cx = 21;
   16B1 23                 4437 	inc	hl
   16B2 36 15              4438 	ld	(hl),#0x15
                           4439 ;main.c:1363: player.cy = 21;
   16B4 23                 4440 	inc	hl
   16B5 36 15              4441 	ld	(hl),#0x15
                           4442 ;main.c:1364: player.oldcx = 0;
   16B7 23                 4443 	inc	hl
   16B8 36 00              4444 	ld	(hl),#0x00
                           4445 ;main.c:1365: player.oldcy = 0;
   16BA 23                 4446 	inc	hl
   16BB 36 00              4447 	ld	(hl),#0x00
                           4448 ;main.c:1366: player.regard = GAUCHE;
   16BD 21r0Fs00           4449 	ld	hl,#0x000d + _player
   16C0 36 02              4450 	ld	(hl),#0x02
                           4451 ;main.c:1367: player.lastMvt = HORIZONTAL;
   16C2 21r20s00           4452 	ld	hl,#0x001e + _player
   16C5 36 00              4453 	ld	(hl),#0x00
                           4454 ;main.c:1368: player.oldDirection=STOP;
   16C7 21r0Ds00           4455 	ld	hl,#0x000b + _player
   16CA 36 04              4456 	ld	(hl),#0x04
                           4457 ;main.c:1369: player.direction=STOP;
   16CC 23                 4458 	inc	hl
   16CD 36 04              4459 	ld	(hl),#0x04
                           4460 ;main.c:1370: player.nbpills=0;
   16CF 23                 4461 	inc	hl
   16D0 23                 4462 	inc	hl
   16D1 36 00              4463 	ld	(hl),#0x00
                           4464 ;main.c:1371: player.lastDoor1Cx=0;
   16D3 23                 4465 	inc	hl
   16D4 36 00              4466 	ld	(hl),#0x00
                           4467 ;main.c:1372: player.lastDoor1Cy=0;
   16D6 23                 4468 	inc	hl
   16D7 36 00              4469 	ld	(hl),#0x00
                           4470 ;main.c:1373: player.lastDoor2Cx=0;
   16D9 23                 4471 	inc	hl
   16DA 36 00              4472 	ld	(hl),#0x00
                           4473 ;main.c:1374: player.lastDoor2Cy=0;
   16DC 23                 4474 	inc	hl
   16DD 36 00              4475 	ld	(hl),#0x00
                           4476 ;main.c:1379: player.nbMoveForBonus = 0;
   16DF 21r1Cs00           4477 	ld	hl,#0x001a + _player
   16E2 36 00              4478 	ld	(hl),#0x00
   16E4 23                 4479 	inc	hl
   16E5 36 00              4480 	ld	(hl),#0x00
                           4481 ;main.c:1381: player.pause=0;
   16E7 23                 4482 	inc	hl
   16E8 36 00              4483 	ld	(hl),#0x00
                           4484 ;main.c:1382: player.currentAnim=0;
   16EA 21r21s00           4485 	ld	hl,#0x001f + _player
   16ED 36 00              4486 	ld	(hl),#0x00
                           4487 ;main.c:1384: player.pattern1=120;
   16EF 21r09s00           4488 	ld	hl,#0x0007 + _player
   16F2 36 78              4489 	ld	(hl),#0x78
                           4490 ;main.c:1385: player.pattern2=28;
   16F4 23                 4491 	inc	hl
   16F5 36 1C              4492 	ld	(hl),#0x1C
                           4493 ;main.c:1386: player.colour1=7;
   16F7 23                 4494 	inc	hl
   16F8 36 07              4495 	ld	(hl),#0x07
                           4496 ;main.c:1387: player.colour2=6;
   16FA 23                 4497 	inc	hl
   16FB 36 06              4498 	ld	(hl),#0x06
   16FD C9                 4499 	ret
   16FE                    4500 _reInitPlayer_end::
                           4501 ;main.c:1390: void initCop(byte c)
                           4502 ;	---------------------------------
                           4503 ; Function initCop
                           4504 ; ---------------------------------
   16FE                    4505 _initCop_start::
   16FE                    4506 _initCop:
   16FE DD E5              4507 	push	ix
   1700 DD 21 00 00        4508 	ld	ix,#0
   1704 DD 39              4509 	add	ix,sp
   1706 F5                 4510 	push	af
                           4511 ;main.c:1392: if (c==0)
   1707 AF                 4512 	xor	a,a
   1708 DD B6 04           4513 	or	a,4 (ix)
   170B 20 69              4514 	jr	NZ,00110$
                           4515 ;main.c:1395: cop[c].px = 27<<3;
   170D DD 7E 04           4516 	ld	a,4 (ix)
   1710 5F                 4517 	ld	e,a
   1711 87                 4518 	add	a,a
   1712 83                 4519 	add	a,e
   1713 87                 4520 	add	a,a
   1714 87                 4521 	add	a,a
   1715 83                 4522 	add	a,e
   1716 4F                 4523 	ld	c, a
   1717 C6r22              4524 	add	a,#<(_cop)
   1719 5F                 4525 	ld	e,a
   171A 3Es00              4526 	ld	a,#>(_cop)
   171C CE 00              4527 	adc	a,#0x00
   171E 57                 4528 	ld	d,a
   171F 3E D8              4529 	ld	a,#0xD8
   1721 12                 4530 	ld	(de),a
                           4531 ;main.c:1396: cop[c].py = 9<<3;
   1722 3Er22              4532 	ld	a,#<(_cop)
   1724 81                 4533 	add	a,c
   1725 4F                 4534 	ld	c,a
   1726 3Es00              4535 	ld	a,#>(_cop)
   1728 CE 00              4536 	adc	a,#0x00
   172A 47                 4537 	ld	b, a
   172B 59                 4538 	ld	e, c
   172C 57                 4539 	ld	d, a
   172D 13                 4540 	inc	de
   172E 3E 48              4541 	ld	a,#0x48
   1730 12                 4542 	ld	(de),a
                           4543 ;main.c:1397: cop[c].targetx = 5;
   1731 21 04 00           4544 	ld	hl,#0x0004
   1734 09                 4545 	add	hl,bc
   1735 EB                 4546 	ex	de,hl
   1736 3E 05              4547 	ld	a,#0x05
   1738 12                 4548 	ld	(de),a
                           4549 ;main.c:1398: cop[c].targety = 1;
   1739 21 05 00           4550 	ld	hl,#0x0005
   173C 09                 4551 	add	hl,bc
   173D EB                 4552 	ex	de,hl
   173E 3E 01              4553 	ld	a,#0x01
   1740 12                 4554 	ld	(de),a
                           4555 ;main.c:1399: cop[c].pattern1 = 0;
   1741 21 06 00           4556 	ld	hl,#0x0006
   1744 09                 4557 	add	hl,bc
   1745 EB                 4558 	ex	de,hl
   1746 3E 00              4559 	ld	a,#0x00
   1748 12                 4560 	ld	(de),a
                           4561 ;main.c:1400: cop[c].col = 6;
   1749 21 0A 00           4562 	ld	hl,#0x000A
   174C 09                 4563 	add	hl,bc
   174D EB                 4564 	ex	de,hl
   174E 3E 06              4565 	ld	a,#0x06
   1750 12                 4566 	ld	(de),a
                           4567 ;main.c:1401: cop[c].direction = GAUCHE;
   1751 21 07 00           4568 	ld	hl,#0x0007
   1754 09                 4569 	add	hl,bc
   1755 EB                 4570 	ex	de,hl
   1756 3E 02              4571 	ld	a,#0x02
   1758 12                 4572 	ld	(de),a
                           4573 ;main.c:1402: cop[c].regard = GAUCHE;
   1759 21 08 00           4574 	ld	hl,#0x0008
   175C 09                 4575 	add	hl,bc
   175D EB                 4576 	ex	de,hl
   175E 3E 02              4577 	ld	a,#0x02
   1760 12                 4578 	ld	(de),a
                           4579 ;main.c:1403: cop[c].sprno = SPRITE2;
   1761 21 09 00           4580 	ld	hl,#0x0009
   1764 09                 4581 	add	hl,bc
   1765 EB                 4582 	ex	de,hl
   1766 3E 01              4583 	ld	a,#0x01
   1768 12                 4584 	ld	(de),a
                           4585 ;main.c:1404: cop[c].pause=levelParamCop0FreezeStart;
   1769 21 0C 00           4586 	ld	hl,#0x000C
   176C 09                 4587 	add	hl,bc
   176D 4D                 4588 	ld	c,l
   176E 44                 4589 	ld	b,h
   176F 3Ar27s01           4590 	ld	a,(#_levelParamCop0FreezeStart + 0)
   1772 02                 4591 	ld	(bc),a
   1773 C3r92s18           4592 	jp	00111$
   1776                    4593 00110$:
                           4594 ;main.c:1406: if (c==1)
   1776 DD 7E 04           4595 	ld	a,4 (ix)
   1779 D6 01              4596 	sub	a,#0x01
   177B 20 59              4597 	jr	NZ,00107$
                           4598 ;main.c:1409: cop[c].px = 27<<3;
   177D DD 7E 04           4599 	ld	a,4 (ix)
   1780 5F                 4600 	ld	e,a
   1781 87                 4601 	add	a,a
   1782 83                 4602 	add	a,e
   1783 87                 4603 	add	a,a
   1784 87                 4604 	add	a,a
   1785 83                 4605 	add	a,e
   1786 4F                 4606 	ld	c, a
   1787 C6r22              4607 	add	a,#<(_cop)
   1789 5F                 4608 	ld	e,a
   178A 3Es00              4609 	ld	a,#>(_cop)
   178C CE 00              4610 	adc	a,#0x00
   178E 57                 4611 	ld	d,a
   178F 3E D8              4612 	ld	a,#0xD8
   1791 12                 4613 	ld	(de),a
                           4614 ;main.c:1410: cop[c].py = 13<<3;
   1792 3Er22              4615 	ld	a,#<(_cop)
   1794 81                 4616 	add	a,c
   1795 4F                 4617 	ld	c,a
   1796 3Es00              4618 	ld	a,#>(_cop)
   1798 CE 00              4619 	adc	a,#0x00
   179A 47                 4620 	ld	b, a
   179B 59                 4621 	ld	e, c
   179C 57                 4622 	ld	d, a
   179D 13                 4623 	inc	de
   179E 3E 68              4624 	ld	a,#0x68
   17A0 12                 4625 	ld	(de),a
                           4626 ;main.c:1411: cop[c].pattern1 = 12;
   17A1 21 06 00           4627 	ld	hl,#0x0006
   17A4 09                 4628 	add	hl,bc
   17A5 EB                 4629 	ex	de,hl
   17A6 3E 0C              4630 	ld	a,#0x0C
   17A8 12                 4631 	ld	(de),a
                           4632 ;main.c:1412: cop[c].col = 7;
   17A9 21 0A 00           4633 	ld	hl,#0x000A
   17AC 09                 4634 	add	hl,bc
   17AD EB                 4635 	ex	de,hl
   17AE 3E 07              4636 	ld	a,#0x07
   17B0 12                 4637 	ld	(de),a
                           4638 ;main.c:1413: cop[c].direction = GAUCHE;
   17B1 21 07 00           4639 	ld	hl,#0x0007
   17B4 09                 4640 	add	hl,bc
   17B5 EB                 4641 	ex	de,hl
   17B6 3E 02              4642 	ld	a,#0x02
   17B8 12                 4643 	ld	(de),a
                           4644 ;main.c:1414: cop[c].regard = GAUCHE;
   17B9 21 08 00           4645 	ld	hl,#0x0008
   17BC 09                 4646 	add	hl,bc
   17BD EB                 4647 	ex	de,hl
   17BE 3E 02              4648 	ld	a,#0x02
   17C0 12                 4649 	ld	(de),a
                           4650 ;main.c:1415: cop[c].sprno = SPRITE3;
   17C1 21 09 00           4651 	ld	hl,#0x0009
   17C4 09                 4652 	add	hl,bc
   17C5 EB                 4653 	ex	de,hl
   17C6 3E 1E              4654 	ld	a,#0x1E
   17C8 12                 4655 	ld	(de),a
                           4656 ;main.c:1416: cop[c].pause=levelParamCop1FreezeStart;
   17C9 21 0C 00           4657 	ld	hl,#0x000C
   17CC 09                 4658 	add	hl,bc
   17CD 4D                 4659 	ld	c,l
   17CE 44                 4660 	ld	b,h
   17CF 3Ar29s01           4661 	ld	a,(#_levelParamCop1FreezeStart + 0)
   17D2 02                 4662 	ld	(bc),a
   17D3 C3r92s18           4663 	jp	00111$
   17D6                    4664 00107$:
                           4665 ;main.c:1418: if (c==2)
   17D6 DD 7E 04           4666 	ld	a,4 (ix)
   17D9 D6 02              4667 	sub	a,#0x02
   17DB 20 58              4668 	jr	NZ,00104$
                           4669 ;main.c:1421: cop[c].px = 3<<3;
   17DD DD 7E 04           4670 	ld	a,4 (ix)
   17E0 5F                 4671 	ld	e,a
   17E1 87                 4672 	add	a,a
   17E2 83                 4673 	add	a,e
   17E3 87                 4674 	add	a,a
   17E4 87                 4675 	add	a,a
   17E5 83                 4676 	add	a,e
   17E6 4F                 4677 	ld	c, a
   17E7 C6r22              4678 	add	a,#<(_cop)
   17E9 5F                 4679 	ld	e,a
   17EA 3Es00              4680 	ld	a,#>(_cop)
   17EC CE 00              4681 	adc	a,#0x00
   17EE 57                 4682 	ld	d,a
   17EF 3E 18              4683 	ld	a,#0x18
   17F1 12                 4684 	ld	(de),a
                           4685 ;main.c:1422: cop[c].py = 9<<3;
   17F2 3Er22              4686 	ld	a,#<(_cop)
   17F4 81                 4687 	add	a,c
   17F5 4F                 4688 	ld	c,a
   17F6 3Es00              4689 	ld	a,#>(_cop)
   17F8 CE 00              4690 	adc	a,#0x00
   17FA 47                 4691 	ld	b, a
   17FB 59                 4692 	ld	e, c
   17FC 57                 4693 	ld	d, a
   17FD 13                 4694 	inc	de
   17FE 3E 48              4695 	ld	a,#0x48
   1800 12                 4696 	ld	(de),a
                           4697 ;main.c:1423: cop[c].pattern1 = 12;
   1801 21 06 00           4698 	ld	hl,#0x0006
   1804 09                 4699 	add	hl,bc
   1805 EB                 4700 	ex	de,hl
   1806 3E 0C              4701 	ld	a,#0x0C
   1808 12                 4702 	ld	(de),a
                           4703 ;main.c:1424: cop[c].col = 2;
   1809 21 0A 00           4704 	ld	hl,#0x000A
   180C 09                 4705 	add	hl,bc
   180D EB                 4706 	ex	de,hl
   180E 3E 02              4707 	ld	a,#0x02
   1810 12                 4708 	ld	(de),a
                           4709 ;main.c:1425: cop[c].direction = DROITE;
   1811 21 07 00           4710 	ld	hl,#0x0007
   1814 09                 4711 	add	hl,bc
   1815 EB                 4712 	ex	de,hl
   1816 3E 03              4713 	ld	a,#0x03
   1818 12                 4714 	ld	(de),a
                           4715 ;main.c:1426: cop[c].regard = DROITE;
   1819 21 08 00           4716 	ld	hl,#0x0008
   181C 09                 4717 	add	hl,bc
   181D EB                 4718 	ex	de,hl
   181E 3E 03              4719 	ld	a,#0x03
   1820 12                 4720 	ld	(de),a
                           4721 ;main.c:1427: cop[c].sprno = SPRITE4;
   1821 21 09 00           4722 	ld	hl,#0x0009
   1824 09                 4723 	add	hl,bc
   1825 EB                 4724 	ex	de,hl
   1826 3E 02              4725 	ld	a,#0x02
   1828 12                 4726 	ld	(de),a
                           4727 ;main.c:1428: cop[c].pause=levelParamCop2FreezeStart;
   1829 21 0C 00           4728 	ld	hl,#0x000C
   182C 09                 4729 	add	hl,bc
   182D 4D                 4730 	ld	c,l
   182E 44                 4731 	ld	b,h
   182F 3Ar2Bs01           4732 	ld	a,(#_levelParamCop2FreezeStart + 0)
   1832 02                 4733 	ld	(bc),a
   1833 18 5D              4734 	jr	00111$
   1835                    4735 00104$:
                           4736 ;main.c:1430: if (c==3)
   1835 DD 7E 04           4737 	ld	a,4 (ix)
   1838 D6 03              4738 	sub	a,#0x03
   183A 20 56              4739 	jr	NZ,00111$
                           4740 ;main.c:1433: cop[c].px = 3<<3;
   183C DD 7E 04           4741 	ld	a,4 (ix)
   183F 5F                 4742 	ld	e,a
   1840 87                 4743 	add	a,a
   1841 83                 4744 	add	a,e
   1842 87                 4745 	add	a,a
   1843 87                 4746 	add	a,a
   1844 83                 4747 	add	a,e
   1845 4F                 4748 	ld	c, a
   1846 C6r22              4749 	add	a,#<(_cop)
   1848 5F                 4750 	ld	e,a
   1849 3Es00              4751 	ld	a,#>(_cop)
   184B CE 00              4752 	adc	a,#0x00
   184D 57                 4753 	ld	d,a
   184E 3E 18              4754 	ld	a,#0x18
   1850 12                 4755 	ld	(de),a
                           4756 ;main.c:1434: cop[c].py = 13<<3;
   1851 3Er22              4757 	ld	a,#<(_cop)
   1853 81                 4758 	add	a,c
   1854 4F                 4759 	ld	c,a
   1855 3Es00              4760 	ld	a,#>(_cop)
   1857 CE 00              4761 	adc	a,#0x00
   1859 47                 4762 	ld	b, a
   185A 59                 4763 	ld	e, c
   185B 57                 4764 	ld	d, a
   185C 13                 4765 	inc	de
   185D 3E 68              4766 	ld	a,#0x68
   185F 12                 4767 	ld	(de),a
                           4768 ;main.c:1435: cop[c].pattern1 = 0;
   1860 21 06 00           4769 	ld	hl,#0x0006
   1863 09                 4770 	add	hl,bc
   1864 EB                 4771 	ex	de,hl
   1865 3E 00              4772 	ld	a,#0x00
   1867 12                 4773 	ld	(de),a
                           4774 ;main.c:1436: cop[c].col = 13;
   1868 21 0A 00           4775 	ld	hl,#0x000A
   186B 09                 4776 	add	hl,bc
   186C EB                 4777 	ex	de,hl
   186D 3E 0D              4778 	ld	a,#0x0D
   186F 12                 4779 	ld	(de),a
                           4780 ;main.c:1437: cop[c].direction = DROITE;
   1870 21 07 00           4781 	ld	hl,#0x0007
   1873 09                 4782 	add	hl,bc
   1874 EB                 4783 	ex	de,hl
   1875 3E 03              4784 	ld	a,#0x03
   1877 12                 4785 	ld	(de),a
                           4786 ;main.c:1438: cop[c].regard = DROITE;
   1878 21 08 00           4787 	ld	hl,#0x0008
   187B 09                 4788 	add	hl,bc
   187C EB                 4789 	ex	de,hl
   187D 3E 03              4790 	ld	a,#0x03
   187F 12                 4791 	ld	(de),a
                           4792 ;main.c:1439: cop[c].sprno = SPRITE5;
   1880 21 09 00           4793 	ld	hl,#0x0009
   1883 09                 4794 	add	hl,bc
   1884 EB                 4795 	ex	de,hl
   1885 3E 1D              4796 	ld	a,#0x1D
   1887 12                 4797 	ld	(de),a
                           4798 ;main.c:1440: cop[c].pause=levelParamCop3FreezeStart;
   1888 21 0C 00           4799 	ld	hl,#0x000C
   188B 09                 4800 	add	hl,bc
   188C 4D                 4801 	ld	c,l
   188D 44                 4802 	ld	b,h
   188E 3Ar2Ds01           4803 	ld	a,(#_levelParamCop3FreezeStart + 0)
   1891 02                 4804 	ld	(bc),a
   1892                    4805 00111$:
                           4806 ;main.c:1443: cop[c].cx = cop[c].px >> 3;
   1892 DD 7E 04           4807 	ld	a,4 (ix)
   1895 5F                 4808 	ld	e,a
   1896 87                 4809 	add	a,a
   1897 83                 4810 	add	a,e
   1898 87                 4811 	add	a,a
   1899 87                 4812 	add	a,a
   189A 83                 4813 	add	a,e
   189B C6r22              4814 	add	a,#<(_cop)
   189D 4F                 4815 	ld	c,a
   189E 3Es00              4816 	ld	a,#>(_cop)
   18A0 CE 00              4817 	adc	a,#0x00
   18A2 47                 4818 	ld	b,a
   18A3 21 02 00           4819 	ld	hl,#0x0002
   18A6 09                 4820 	add	hl,bc
   18A7 DD 75 FE           4821 	ld	-2 (ix),l
   18AA DD 74 FF           4822 	ld	-1 (ix),h
   18AD 0A                 4823 	ld	a,(bc)
   18AE 5F                 4824 	ld	e,a
   18AF CB 3B              4825 	srl	e
   18B1 CB 3B              4826 	srl	e
   18B3 CB 3B              4827 	srl	e
   18B5 DD 6E FE           4828 	ld	l,-2 (ix)
   18B8 DD 66 FF           4829 	ld	h,-1 (ix)
   18BB 73                 4830 	ld	(hl),e
                           4831 ;main.c:1444: cop[c].cy = cop[c].py >> 3;
   18BC 21 03 00           4832 	ld	hl,#0x0003
   18BF 09                 4833 	add	hl,bc
   18C0 EB                 4834 	ex	de,hl
   18C1 03                 4835 	inc	bc
   18C2 0A                 4836 	ld	a,(bc)
   18C3 CB 3F              4837 	srl	a
   18C5 CB 3F              4838 	srl	a
   18C7 CB 3F              4839 	srl	a
   18C9 12                 4840 	ld	(de),a
   18CA DD F9              4841 	ld	sp,ix
   18CC DD E1              4842 	pop	ix
   18CE C9                 4843 	ret
   18CF                    4844 _initCop_end::
                           4845 ;main.c:1449: byte moveCop0()
                           4846 ;	---------------------------------
                           4847 ; Function moveCop0
                           4848 ; ---------------------------------
   18CF                    4849 _moveCop0_start::
   18CF                    4850 _moveCop0:
   18CF DD E5              4851 	push	ix
   18D1 DD 21 00 00        4852 	ld	ix,#0
   18D5 DD 39              4853 	add	ix,sp
   18D7 F5                 4854 	push	af
   18D8 3B                 4855 	dec	sp
                           4856 ;main.c:1455: s_cop *mycop_0 = &cop[0];	
                           4857 ;main.c:1456: byte *cop_0_py = &mycop_0->py;
                           4858 ;main.c:1457: byte *cop_0_px = &mycop_0->px;
                           4859 ;main.c:1458: byte *cop_0_direction = &mycop_0->direction;
                           4860 ;main.c:1459: byte *cop_0_targetx = &mycop_0->targetx;
                           4861 ;main.c:1460: byte *cop_0_targety = &mycop_0->targety;
                           4862 ;main.c:1461: byte *cop_0_lastMvt = &mycop_0->lastMvt;
                           4863 ;main.c:1462: byte *cop_0_regard = &mycop_0->regard;
                           4864 ;main.c:1463: byte *cop_0_pattern1 = &mycop_0->pattern1;
                           4865 ;main.c:1464: byte *cop_0_cy = &mycop_0->cy;
                           4866 ;main.c:1465: byte *cop_0_cx = &mycop_0->cx;	
                           4867 ;main.c:1466: byte *cop_0_pause = &mycop_0->pause;
                           4868 ;main.c:1468: if ((*cop_0_pause)>0) {(*cop_0_pause)--;return OK;}
   18D9 21r2Es00           4869 	ld	hl,#0x000c + _cop
   18DC 6E                 4870 	ld	l,(hl)
   18DD AF                 4871 	xor	a,a
   18DE B5                 4872 	or	a,l
   18DF 28 0A              4873 	jr	Z,00102$
   18E1 7D                 4874 	ld	a,l
   18E2 3D                 4875 	dec	a
   18E3 32r2Es00           4876 	ld	(#0x000c + _cop),a
   18E6 2E 00              4877 	ld	l,#0x00
   18E8 C3rD1s1A           4878 	jp	00158$
   18EB                    4879 00102$:
                           4880 ;main.c:1471: movOk = NOK;
   18EB 0E 01              4881 	ld	c,#0x01
                           4882 ;main.c:1472: directionDesiree = (*cop_0_direction);
   18ED 21r29s00           4883 	ld	hl,#0x0007 + _cop
   18F0 46                 4884 	ld	b,(hl)
   18F1 58                 4885 	ld	e,b
                           4886 ;main.c:1476: if ( (((*cop_0_px) % 8)==0)&& (((*cop_0_py) % 8)==0) )
   18F2 3Ar22s00           4887 	ld	a,(#_cop)
   18F5 E6 07              4888 	and	a,#0x07
   18F7 C2r98s19           4889 	jp	NZ,00124$
   18FA 3Ar23s00           4890 	ld	a,(#0x0001 + _cop)
   18FD E6 07              4891 	and	a,#0x07
   18FF C2r98s19           4892 	jp	NZ,00124$
                           4893 ;main.c:1478: if (scatterModeTimer==0)
   1902 FD 21r8Ds00        4894 	ld	iy,#_scatterModeTimer
   1906 FD 7E 00           4895 	ld	a,0 (iy)
   1909 FD B6 01           4896 	or	a,1 (iy)
   190C 20 21              4897 	jr	NZ,00104$
                           4898 ;main.c:1480: playercx = player.px>>3;
   190E 3Ar02s00           4899 	ld	a,(#_player)
   1911 CB 3F              4900 	srl	a
   1913 CB 3F              4901 	srl	a
   1915 CB 3F              4902 	srl	a
   1917 DD 77 FF           4903 	ld	-1 (ix),a
                           4904 ;main.c:1481: playercy = player.py>>3;
   191A 21r03s00           4905 	ld	hl,#0x0001 + _player
   191D 56                 4906 	ld	d, (hl)
   191E CB 3A              4907 	srl	d
   1920 CB 3A              4908 	srl	d
   1922 CB 3A              4909 	srl	d
                           4910 ;main.c:1483: (*cop_0_targetx) = playercx;
   1924 21r26s00           4911 	ld	hl,#0x0004 + _cop
   1927 DD 7E FF           4912 	ld	a,-1 (ix)
   192A 77                 4913 	ld	(hl),a
                           4914 ;main.c:1484: (*cop_0_targety) = playercy;
   192B 23                 4915 	inc	hl
   192C 72                 4916 	ld	(hl),d
   192D 18 08              4917 	jr	00105$
   192F                    4918 00104$:
                           4919 ;main.c:1487: (*cop_0_targetx) = 25;
   192F 21r26s00           4920 	ld	hl,#0x0004 + _cop
   1932 36 19              4921 	ld	(hl),#0x19
                           4922 ;main.c:1488: (*cop_0_targety) = 21;
   1934 23                 4923 	inc	hl
   1935 36 15              4924 	ld	(hl),#0x15
   1937                    4925 00105$:
                           4926 ;main.c:1491: if ( ((*cop_0_targety)<(*cop_0_cy)) && ((*cop_0_direction)!=BAS) /*&& (haut==OK)*/ ) // Le joueur est au dessus de nous.
   1937 21r27s00           4927 	ld	hl,#0x0005 + _cop
   193A 56                 4928 	ld	d,(hl)
   193B 2B                 4929 	dec	hl
   193C 2B                 4930 	dec	hl
   193D 7E                 4931 	ld	a,(hl)
   193E DD 77 FE           4932 	ld	-2 (ix),a
   1941 7A                 4933 	ld	a,d
   1942 DD 96 FE           4934 	sub	a,-2 (ix)
   1945 30 09              4935 	jr	NC,00118$
   1947 78                 4936 	ld	a,b
   1948 D6 01              4937 	sub	a,#0x01
   194A 28 04              4938 	jr	Z,00118$
                           4939 ;main.c:1493: directionDesiree = HAUT;
   194C 1E 00              4940 	ld	e,#0x00
   194E 18 34              4941 	jr	00119$
   1950                    4942 00118$:
                           4943 ;main.c:1496: if ( ((*cop_0_targetx)<(*cop_0_cx)) && ((*cop_0_direction)!=DROITE) /*&& (gauche==OK)*/ )
   1950 21r26s00           4944 	ld	hl,#0x0004 + _cop
   1953 7E                 4945 	ld	a,(hl)
   1954 DD 77 FD           4946 	ld	-3 (ix),a
   1957 2B                 4947 	dec	hl
   1958 2B                 4948 	dec	hl
   1959 6E                 4949 	ld	l,(hl)
   195A DD 7E FD           4950 	ld	a,-3 (ix)
   195D 95                 4951 	sub	a,l
   195E 30 09              4952 	jr	NC,00114$
   1960 78                 4953 	ld	a,b
   1961 D6 03              4954 	sub	a,#0x03
   1963 28 04              4955 	jr	Z,00114$
                           4956 ;main.c:1498: directionDesiree = GAUCHE;
   1965 1E 02              4957 	ld	e,#0x02
   1967 18 1B              4958 	jr	00119$
   1969                    4959 00114$:
                           4960 ;main.c:1501: if ( ((*cop_0_targety)>(*cop_0_cy)) && ((*cop_0_direction)!=HAUT) /*&& (bas==OK)*/ )
   1969 DD 7E FE           4961 	ld	a,-2 (ix)
   196C 92                 4962 	sub	a,d
   196D 30 08              4963 	jr	NC,00110$
   196F AF                 4964 	xor	a,a
   1970 B0                 4965 	or	a,b
   1971 28 04              4966 	jr	Z,00110$
                           4967 ;main.c:1503: directionDesiree = BAS;
   1973 1E 01              4968 	ld	e,#0x01
   1975 18 0D              4969 	jr	00119$
   1977                    4970 00110$:
                           4971 ;main.c:1506: if ( ((*cop_0_targetx)>(*cop_0_cx)) && ((*cop_0_direction)!=GAUCHE) )
   1977 7D                 4972 	ld	a,l
   1978 DD 96 FD           4973 	sub	a,-3 (ix)
   197B 30 07              4974 	jr	NC,00119$
   197D 78                 4975 	ld	a,b
   197E D6 02              4976 	sub	a,#0x02
   1980 28 02              4977 	jr	Z,00119$
                           4978 ;main.c:1508: directionDesiree = DROITE;
   1982 1E 03              4979 	ld	e,#0x03
   1984                    4980 00119$:
                           4981 ;main.c:1511: if (isCopDirectionFree(0,directionDesiree)==OK) 
   1984 C5                 4982 	push	bc
   1985 D5                 4983 	push	de
   1986 53                 4984 	ld	d, e
   1987 1E 00              4985 	ld	e,#0x00
   1989 D5                 4986 	push	de
   198A CDr05s0E           4987 	call	_isCopDirectionFree
   198D F1                 4988 	pop	af
   198E D1                 4989 	pop	de
   198F C1                 4990 	pop	bc
   1990 AF                 4991 	xor	a,a
   1991 B5                 4992 	or	a,l
   1992 20 04              4993 	jr	NZ,00124$
                           4994 ;main.c:1513: (*cop_0_direction) = directionDesiree;
   1994 21r29s00           4995 	ld	hl,#0x0007 + _cop
   1997 73                 4996 	ld	(hl),e
   1998                    4997 00124$:
                           4998 ;main.c:1518: if ( ((*cop_0_direction)==HAUT) && isCopDirectionFree(0,HAUT)==OK ) 
   1998 3Ar29s00           4999 	ld	a,(#0x0007 + _cop)
   199B B7                 5000 	or	a,a
   199C 20 1F              5001 	jr	NZ,00142$
   199E C5                 5002 	push	bc
   199F 21 00 00           5003 	ld	hl,#0x0000
   19A2 E5                 5004 	push	hl
   19A3 CDr05s0E           5005 	call	_isCopDirectionFree
   19A6 F1                 5006 	pop	af
   19A7 C1                 5007 	pop	bc
   19A8 AF                 5008 	xor	a,a
   19A9 B5                 5009 	or	a,l
   19AA 20 11              5010 	jr	NZ,00142$
                           5011 ;main.c:1520: (*cop_0_py)--;
   19AC 3Ar23s00           5012 	ld	a,(#0x0001 + _cop)
   19AF 3D                 5013 	dec	a
   19B0 32r23s00           5014 	ld	(#0x0001 + _cop),a
                           5015 ;main.c:1521: (*cop_0_lastMvt) = VERTICAL;
   19B3 21r2Ds00           5016 	ld	hl,#0x000b + _cop
   19B6 36 01              5017 	ld	(hl),#0x01
                           5018 ;main.c:1522: movOk = OK;
   19B8 0E 00              5019 	ld	c,#0x00
   19BA C3r4Cs1A           5020 	jp	00143$
   19BD                    5021 00142$:
                           5022 ;main.c:1525: if ( ((*cop_0_direction)==BAS) && isCopDirectionFree(0,BAS)==OK ) 
   19BD 3Ar29s00           5023 	ld	a,(#0x0007 + _cop)
   19C0 D6 01              5024 	sub	a,#0x01
   19C2 20 1E              5025 	jr	NZ,00138$
   19C4 C5                 5026 	push	bc
   19C5 21 00 01           5027 	ld	hl,#0x0100
   19C8 E5                 5028 	push	hl
   19C9 CDr05s0E           5029 	call	_isCopDirectionFree
   19CC F1                 5030 	pop	af
   19CD C1                 5031 	pop	bc
   19CE AF                 5032 	xor	a,a
   19CF B5                 5033 	or	a,l
   19D0 20 10              5034 	jr	NZ,00138$
                           5035 ;main.c:1527: (*cop_0_py)++;
   19D2 3Ar23s00           5036 	ld	a,(#0x0001 + _cop)
   19D5 3C                 5037 	inc	a
   19D6 32r23s00           5038 	ld	(#0x0001 + _cop),a
                           5039 ;main.c:1528: (*cop_0_lastMvt) = VERTICAL;
   19D9 21r2Ds00           5040 	ld	hl,#0x000b + _cop
   19DC 36 01              5041 	ld	(hl),#0x01
                           5042 ;main.c:1529: movOk = OK;
   19DE 0E 00              5043 	ld	c,#0x00
   19E0 18 6A              5044 	jr	00143$
   19E2                    5045 00138$:
                           5046 ;main.c:1532: if ( ((*cop_0_direction)==GAUCHE) && isCopDirectionFree(0,GAUCHE)==OK ) 
   19E2 3Ar29s00           5047 	ld	a,(#0x0007 + _cop)
   19E5 D6 02              5048 	sub	a,#0x02
   19E7 20 2F              5049 	jr	NZ,00134$
   19E9 C5                 5050 	push	bc
   19EA 21 00 02           5051 	ld	hl,#0x0200
   19ED E5                 5052 	push	hl
   19EE CDr05s0E           5053 	call	_isCopDirectionFree
   19F1 F1                 5054 	pop	af
   19F2 C1                 5055 	pop	bc
   19F3 AF                 5056 	xor	a,a
   19F4 B5                 5057 	or	a,l
   19F5 20 21              5058 	jr	NZ,00134$
                           5059 ;main.c:1534: (*cop_0_px)--;
   19F7 3Ar22s00           5060 	ld	a,(#_cop)
   19FA 3D                 5061 	dec	a
   19FB 32r22s00           5062 	ld	(#_cop),a
                           5063 ;main.c:1535: (*cop_0_lastMvt) = HORIZONTAL;
   19FE 21r2Ds00           5064 	ld	hl,#0x000b + _cop
   1A01 36 00              5065 	ld	(hl),#0x00
                           5066 ;main.c:1536: if ((*cop_0_regard)==DROITE) (*cop_0_pattern1) = 0; // On passe le regard  gauche
   1A03 3Ar2As00           5067 	ld	a,(#0x0008 + _cop)
   1A06 D6 03              5068 	sub	a,#0x03
   1A08 20 05              5069 	jr	NZ,00127$
   1A0A 21r28s00           5070 	ld	hl,#0x0006 + _cop
   1A0D 36 00              5071 	ld	(hl),#0x00
   1A0F                    5072 00127$:
                           5073 ;main.c:1537: (*cop_0_regard) = GAUCHE;
   1A0F 21r2As00           5074 	ld	hl,#0x0008 + _cop
   1A12 36 02              5075 	ld	(hl),#0x02
                           5076 ;main.c:1538: movOk = OK;
   1A14 0E 00              5077 	ld	c,#0x00
   1A16 18 34              5078 	jr	00143$
   1A18                    5079 00134$:
                           5080 ;main.c:1541: if ( ((*cop_0_direction)==DROITE) && isCopDirectionFree(0,DROITE)==OK ) 
   1A18 3Ar29s00           5081 	ld	a,(#0x0007 + _cop)
   1A1B D6 03              5082 	sub	a,#0x03
   1A1D 20 2D              5083 	jr	NZ,00143$
   1A1F C5                 5084 	push	bc
   1A20 21 00 03           5085 	ld	hl,#0x0300
   1A23 E5                 5086 	push	hl
   1A24 CDr05s0E           5087 	call	_isCopDirectionFree
   1A27 F1                 5088 	pop	af
   1A28 C1                 5089 	pop	bc
   1A29 AF                 5090 	xor	a,a
   1A2A B5                 5091 	or	a,l
   1A2B 20 1F              5092 	jr	NZ,00143$
                           5093 ;main.c:1543: (*cop_0_px)++;
   1A2D 3Ar22s00           5094 	ld	a,(#_cop)
   1A30 3C                 5095 	inc	a
   1A31 32r22s00           5096 	ld	(#_cop),a
                           5097 ;main.c:1544: (*cop_0_lastMvt) = HORIZONTAL;
   1A34 21r2Ds00           5098 	ld	hl,#0x000b + _cop
   1A37 36 00              5099 	ld	(hl),#0x00
                           5100 ;main.c:1545: if ((*cop_0_regard)==GAUCHE) (*cop_0_pattern1) = 12; // On passe le regard  droite
   1A39 3Ar2As00           5101 	ld	a,(#0x0008 + _cop)
   1A3C D6 02              5102 	sub	a,#0x02
   1A3E 20 05              5103 	jr	NZ,00129$
   1A40 21r28s00           5104 	ld	hl,#0x0006 + _cop
   1A43 36 0C              5105 	ld	(hl),#0x0C
   1A45                    5106 00129$:
                           5107 ;main.c:1546: (*cop_0_regard) = DROITE;
   1A45 21r2As00           5108 	ld	hl,#0x0008 + _cop
   1A48 36 03              5109 	ld	(hl),#0x03
                           5110 ;main.c:1547: movOk = OK;
   1A4A 0E 00              5111 	ld	c,#0x00
   1A4C                    5112 00143$:
                           5113 ;main.c:1550: if (((*cop_0_direction)==GAUCHE) && ((*cop_0_px)==8))
   1A4C 21r29s00           5114 	ld	hl,#0x0007 + _cop
   1A4F 46                 5115 	ld	b,(hl)
   1A50 78                 5116 	ld	a,b
   1A51 D6 02              5117 	sub	a,#0x02
   1A53 20 26              5118 	jr	NZ,00153$
   1A55 3Ar22s00           5119 	ld	a,(#_cop)
   1A58 D6 08              5120 	sub	a,#0x08
   1A5A 20 1F              5121 	jr	NZ,00153$
                           5122 ;main.c:1552: (*cop_0_px) = 240; //30<<3;
   1A5C 21r22s00           5123 	ld	hl,#_cop
   1A5F 36 F0              5124 	ld	(hl),#0xF0
                           5125 ;main.c:1553: (*cop_0_lastMvt) = HORIZONTAL;
   1A61 21r2Ds00           5126 	ld	hl,#0x000b + _cop
   1A64 36 00              5127 	ld	(hl),#0x00
                           5128 ;main.c:1554: if ((*cop_0_regard)==DROITE) (*cop_0_pattern1) = 0; // On passe le regard  gauche
   1A66 3Ar2As00           5129 	ld	a,(#0x0008 + _cop)
   1A69 D6 03              5130 	sub	a,#0x03
   1A6B 20 05              5131 	jr	NZ,00146$
   1A6D 21r28s00           5132 	ld	hl,#0x0006 + _cop
   1A70 36 00              5133 	ld	(hl),#0x00
   1A72                    5134 00146$:
                           5135 ;main.c:1555: (*cop_0_regard) = GAUCHE;
   1A72 21r2As00           5136 	ld	hl,#0x0008 + _cop
   1A75 36 02              5137 	ld	(hl),#0x02
                           5138 ;main.c:1556: movOk = OK;
   1A77 0E 00              5139 	ld	c,#0x00
   1A79 18 29              5140 	jr	00154$
   1A7B                    5141 00153$:
                           5142 ;main.c:1559: if (((*cop_0_direction)==DROITE) && ((*cop_0_px)==232))
   1A7B 78                 5143 	ld	a,b
   1A7C D6 03              5144 	sub	a,#0x03
   1A7E 20 24              5145 	jr	NZ,00154$
   1A80 3Ar22s00           5146 	ld	a,(#_cop)
   1A83 D6 E8              5147 	sub	a,#0xE8
   1A85 20 1D              5148 	jr	NZ,00154$
                           5149 ;main.c:1561: (*cop_0_px) = 0;
   1A87 21r22s00           5150 	ld	hl,#_cop
   1A8A 36 00              5151 	ld	(hl),#0x00
                           5152 ;main.c:1562: (*cop_0_lastMvt) = HORIZONTAL;
   1A8C 21r2Ds00           5153 	ld	hl,#0x000b + _cop
   1A8F 36 00              5154 	ld	(hl),#0x00
                           5155 ;main.c:1563: if ((*cop_0_regard)==GAUCHE) (*cop_0_pattern1) = 12; // On passe le regard  droite
   1A91 3Ar2As00           5156 	ld	a,(#0x0008 + _cop)
   1A94 D6 02              5157 	sub	a,#0x02
   1A96 20 05              5158 	jr	NZ,00148$
   1A98 21r28s00           5159 	ld	hl,#0x0006 + _cop
   1A9B 36 0C              5160 	ld	(hl),#0x0C
   1A9D                    5161 00148$:
                           5162 ;main.c:1564: (*cop_0_regard) = DROITE;
   1A9D 21r2As00           5163 	ld	hl,#0x0008 + _cop
   1AA0 36 03              5164 	ld	(hl),#0x03
                           5165 ;main.c:1565: movOk = OK;
   1AA2 0E 00              5166 	ld	c,#0x00
   1AA4                    5167 00154$:
                           5168 ;main.c:1568: (*cop_0_cx) = (*cop_0_px) >> 3;
   1AA4 21r22s00           5169 	ld	hl,#_cop
   1AA7 46                 5170 	ld	b, (hl)
   1AA8 CB 38              5171 	srl	b
   1AAA CB 38              5172 	srl	b
   1AAC CB 38              5173 	srl	b
   1AAE 21r24s00           5174 	ld	hl,#0x0002 + _cop
   1AB1 70                 5175 	ld	(hl),b
                           5176 ;main.c:1569: (*cop_0_cy) = (*cop_0_py) >> 3;
   1AB2 2B                 5177 	dec	hl
   1AB3 46                 5178 	ld	b, (hl)
   1AB4 CB 38              5179 	srl	b
   1AB6 CB 38              5180 	srl	b
   1AB8 CB 38              5181 	srl	b
   1ABA 23                 5182 	inc	hl
   1ABB 23                 5183 	inc	hl
   1ABC 70                 5184 	ld	(hl),b
                           5185 ;main.c:1571: if (movOk==NOK) (*cop_0_direction) = rnd_byte(0,3);
   1ABD 79                 5186 	ld	a,c
   1ABE D6 01              5187 	sub	a,#0x01
   1AC0 20 0D              5188 	jr	NZ,00157$
   1AC2 21 00 03           5189 	ld	hl,#0x0300
   1AC5 E5                 5190 	push	hl
   1AC6 CDr00s00           5191 	call	_rnd_byte
   1AC9 F1                 5192 	pop	af
   1ACA 4D                 5193 	ld	c,l
   1ACB 21r29s00           5194 	ld	hl,#0x0007 + _cop
   1ACE 71                 5195 	ld	(hl),c
   1ACF                    5196 00157$:
                           5197 ;main.c:1573: return OK;
   1ACF 2E 00              5198 	ld	l,#0x00
   1AD1                    5199 00158$:
   1AD1 DD F9              5200 	ld	sp,ix
   1AD3 DD E1              5201 	pop	ix
   1AD5 C9                 5202 	ret
   1AD6                    5203 _moveCop0_end::
                           5204 ;main.c:1577: byte moveCop1()
                           5205 ;	---------------------------------
                           5206 ; Function moveCop1
                           5207 ; ---------------------------------
   1AD6                    5208 _moveCop1_start::
   1AD6                    5209 _moveCop1:
   1AD6 DD E5              5210 	push	ix
   1AD8 DD 21 00 00        5211 	ld	ix,#0
   1ADC DD 39              5212 	add	ix,sp
   1ADE 3B                 5213 	dec	sp
                           5214 ;main.c:1583: s_cop *mycop_1 = &cop[1];	
                           5215 ;main.c:1584: byte *cop_1_py = &mycop_1->py;
                           5216 ;main.c:1585: byte *cop_1_px = &mycop_1->px;
                           5217 ;main.c:1586: byte *cop_1_direction = &mycop_1->direction;
                           5218 ;main.c:1589: byte *cop_1_lastMvt = &mycop_1->lastMvt;
                           5219 ;main.c:1590: byte *cop_1_regard = &mycop_1->regard;
                           5220 ;main.c:1591: byte *cop_1_pattern1 = &mycop_1->pattern1;
                           5221 ;main.c:1592: byte *cop_1_cy = &mycop_1->cy;
                           5222 ;main.c:1593: byte *cop_1_cx = &mycop_1->cx;	
                           5223 ;main.c:1594: byte *cop_1_pause = &mycop_1->pause;
                           5224 ;main.c:1596: if ((*cop_1_pause)>0) {(*cop_1_pause)--;return OK;}
   1ADF 21r3Bs00           5225 	ld	hl,#0x000c + 0x000d + _cop
   1AE2 6E                 5226 	ld	l,(hl)
   1AE3 AF                 5227 	xor	a,a
   1AE4 B5                 5228 	or	a,l
   1AE5 28 0B              5229 	jr	Z,00102$
   1AE7 7D                 5230 	ld	a,l
   1AE8 3D                 5231 	dec	a
   1AE9 21r3Bs00           5232 	ld	hl,#0x000c + 0x000d + _cop
   1AEC 77                 5233 	ld	(hl),a
   1AED 2E 00              5234 	ld	l,#0x00
   1AEF C3rADs1C           5235 	jp	00155$
   1AF2                    5236 00102$:
                           5237 ;main.c:1598: movOk = NOK;
   1AF2 0E 01              5238 	ld	c,#0x01
                           5239 ;main.c:1599: directionDesiree = (*cop_1_direction);
   1AF4 21r36s00           5240 	ld	hl,#0x0007 + 0x000d + _cop
   1AF7 46                 5241 	ld	b,(hl)
   1AF8 58                 5242 	ld	e,b
                           5243 ;main.c:1603: if ( (((*cop_1_px) % 8)==0)&& (((*cop_1_py) % 8)==0) )
   1AF9 3Ar2Fs00           5244 	ld	a,(#0x000d + _cop)
   1AFC E6 07              5245 	and	a,#0x07
   1AFE 20 68              5246 	jr	NZ,00121$
   1B00 21r30s00           5247 	ld	hl,#0x0001 + 0x000d + _cop
   1B03 7E                 5248 	ld	a,(hl)
   1B04 E6 07              5249 	and	a,#0x07
   1B06 20 60              5250 	jr	NZ,00121$
                           5251 ;main.c:1606: playercy = (player.py>>3) +8;
   1B08 3Ar03s00           5252 	ld	a,(#0x0001 + _player)
   1B0B CB 3F              5253 	srl	a
   1B0D CB 3F              5254 	srl	a
   1B0F CB 3F              5255 	srl	a
   1B11 C6 08              5256 	add	a,#0x08
   1B13 57                 5257 	ld	d,a
                           5258 ;main.c:1608: if ( (playercy<(*cop_1_cy)) && ((*cop_1_direction)!=BAS)) // Le joueur est au dessus de nous.
   1B14 21r32s00           5259 	ld	hl,#0x0003 + 0x000d + _cop
   1B17 7E                 5260 	ld	a,(hl)
   1B18 DD 77 FF           5261 	ld	-1 (ix),a
   1B1B 7A                 5262 	ld	a,d
   1B1C DD 96 FF           5263 	sub	a,-1 (ix)
   1B1F 30 09              5264 	jr	NC,00115$
   1B21 78                 5265 	ld	a,b
   1B22 D6 01              5266 	sub	a,#0x01
   1B24 28 04              5267 	jr	Z,00115$
                           5268 ;main.c:1610: directionDesiree = HAUT;
   1B26 1E 00              5269 	ld	e,#0x00
   1B28 18 2A              5270 	jr	00116$
   1B2A                    5271 00115$:
                           5272 ;main.c:1613: if ( (playercy<(*cop_1_cx)) && ((*cop_1_direction)!=DROITE))
   1B2A 21r31s00           5273 	ld	hl,#0x0002 + 0x000d + _cop
   1B2D 6E                 5274 	ld	l,(hl)
   1B2E 7A                 5275 	ld	a,d
   1B2F 95                 5276 	sub	a,l
   1B30 30 09              5277 	jr	NC,00111$
   1B32 78                 5278 	ld	a,b
   1B33 D6 03              5279 	sub	a,#0x03
   1B35 28 04              5280 	jr	Z,00111$
                           5281 ;main.c:1615: directionDesiree = GAUCHE;
   1B37 1E 02              5282 	ld	e,#0x02
   1B39 18 19              5283 	jr	00116$
   1B3B                    5284 00111$:
                           5285 ;main.c:1618: if ( (playercy>(*cop_1_cy)) && ((*cop_1_direction)!=HAUT))
   1B3B DD 7E FF           5286 	ld	a,-1 (ix)
   1B3E 92                 5287 	sub	a,d
   1B3F 30 08              5288 	jr	NC,00107$
   1B41 AF                 5289 	xor	a,a
   1B42 B0                 5290 	or	a,b
   1B43 28 04              5291 	jr	Z,00107$
                           5292 ;main.c:1620: directionDesiree = BAS;
   1B45 1E 01              5293 	ld	e,#0x01
   1B47 18 0B              5294 	jr	00116$
   1B49                    5295 00107$:
                           5296 ;main.c:1623: if ( (playercy>(*cop_1_cx)) && ((*cop_1_direction)!=GAUCHE))
   1B49 7D                 5297 	ld	a,l
   1B4A 92                 5298 	sub	a,d
   1B4B 30 07              5299 	jr	NC,00116$
   1B4D 78                 5300 	ld	a,b
   1B4E D6 02              5301 	sub	a,#0x02
   1B50 28 02              5302 	jr	Z,00116$
                           5303 ;main.c:1625: directionDesiree = DROITE;
   1B52 1E 03              5304 	ld	e,#0x03
   1B54                    5305 00116$:
                           5306 ;main.c:1628: if (isCopDirectionFree(1,directionDesiree)==OK) 
   1B54 C5                 5307 	push	bc
   1B55 D5                 5308 	push	de
   1B56 53                 5309 	ld	d, e
   1B57 1E 01              5310 	ld	e,#0x01
   1B59 D5                 5311 	push	de
   1B5A CDr05s0E           5312 	call	_isCopDirectionFree
   1B5D F1                 5313 	pop	af
   1B5E D1                 5314 	pop	de
   1B5F C1                 5315 	pop	bc
   1B60 AF                 5316 	xor	a,a
   1B61 B5                 5317 	or	a,l
   1B62 20 04              5318 	jr	NZ,00121$
                           5319 ;main.c:1630: (*cop_1_direction) = directionDesiree;
   1B64 21r36s00           5320 	ld	hl,#0x0007 + 0x000d + _cop
   1B67 73                 5321 	ld	(hl),e
   1B68                    5322 00121$:
                           5323 ;main.c:1634: if ( ((*cop_1_direction)==HAUT) && isCopDirectionFree(1,HAUT)==OK ) 
   1B68 21r36s00           5324 	ld	hl,#0x0007 + 0x000d + _cop
   1B6B 7E                 5325 	ld	a,(hl)
   1B6C B7                 5326 	or	a,a
   1B6D 20 21              5327 	jr	NZ,00139$
   1B6F C5                 5328 	push	bc
   1B70 21 01 00           5329 	ld	hl,#0x0001
   1B73 E5                 5330 	push	hl
   1B74 CDr05s0E           5331 	call	_isCopDirectionFree
   1B77 F1                 5332 	pop	af
   1B78 C1                 5333 	pop	bc
   1B79 AF                 5334 	xor	a,a
   1B7A B5                 5335 	or	a,l
   1B7B 20 13              5336 	jr	NZ,00139$
                           5337 ;main.c:1636: (*cop_1_py)--;
   1B7D 21r30s00           5338 	ld	hl,#0x0001 + 0x000d + _cop
   1B80 7E                 5339 	ld	a, (hl)
   1B81 3D                 5340 	dec	a
   1B82 21r30s00           5341 	ld	hl,#0x0001 + 0x000d + _cop
   1B85 77                 5342 	ld	(hl),a
                           5343 ;main.c:1637: (*cop_1_lastMvt) = VERTICAL;
   1B86 21r3As00           5344 	ld	hl,#0x000b + 0x000d + _cop
   1B89 36 01              5345 	ld	(hl),#0x01
                           5346 ;main.c:1638: movOk = OK;
   1B8B 0E 00              5347 	ld	c,#0x00
   1B8D C3r26s1C           5348 	jp	00140$
   1B90                    5349 00139$:
                           5350 ;main.c:1641: if ( ((*cop_1_direction)==BAS) && isCopDirectionFree(1,BAS)==OK ) 
   1B90 21r36s00           5351 	ld	hl,#0x0007 + 0x000d + _cop
   1B93 7E                 5352 	ld	a, (hl)
   1B94 D6 01              5353 	sub	a,#0x01
   1B96 20 20              5354 	jr	NZ,00135$
   1B98 C5                 5355 	push	bc
   1B99 21 01 01           5356 	ld	hl,#0x0101
   1B9C E5                 5357 	push	hl
   1B9D CDr05s0E           5358 	call	_isCopDirectionFree
   1BA0 F1                 5359 	pop	af
   1BA1 C1                 5360 	pop	bc
   1BA2 AF                 5361 	xor	a,a
   1BA3 B5                 5362 	or	a,l
   1BA4 20 12              5363 	jr	NZ,00135$
                           5364 ;main.c:1643: (*cop_1_py)++;
   1BA6 21r30s00           5365 	ld	hl,#0x0001 + 0x000d + _cop
   1BA9 7E                 5366 	ld	a, (hl)
   1BAA 3C                 5367 	inc	a
   1BAB 21r30s00           5368 	ld	hl,#0x0001 + 0x000d + _cop
   1BAE 77                 5369 	ld	(hl),a
                           5370 ;main.c:1644: (*cop_1_lastMvt) = VERTICAL;
   1BAF 21r3As00           5371 	ld	hl,#0x000b + 0x000d + _cop
   1BB2 36 01              5372 	ld	(hl),#0x01
                           5373 ;main.c:1645: movOk = OK;
   1BB4 0E 00              5374 	ld	c,#0x00
   1BB6 18 6E              5375 	jr	00140$
   1BB8                    5376 00135$:
                           5377 ;main.c:1648: if ( ((*cop_1_direction)==GAUCHE) && isCopDirectionFree(1,GAUCHE)==OK ) 
   1BB8 21r36s00           5378 	ld	hl,#0x0007 + 0x000d + _cop
   1BBB 7E                 5379 	ld	a, (hl)
   1BBC D6 02              5380 	sub	a,#0x02
   1BBE 20 30              5381 	jr	NZ,00131$
   1BC0 C5                 5382 	push	bc
   1BC1 21 01 02           5383 	ld	hl,#0x0201
   1BC4 E5                 5384 	push	hl
   1BC5 CDr05s0E           5385 	call	_isCopDirectionFree
   1BC8 F1                 5386 	pop	af
   1BC9 C1                 5387 	pop	bc
   1BCA AF                 5388 	xor	a,a
   1BCB B5                 5389 	or	a,l
   1BCC 20 22              5390 	jr	NZ,00131$
                           5391 ;main.c:1650: (*cop_1_px)--;
   1BCE 3Ar2Fs00           5392 	ld	a,(#0x000d + _cop)
   1BD1 3D                 5393 	dec	a
   1BD2 32r2Fs00           5394 	ld	(#0x000d + _cop),a
                           5395 ;main.c:1651: (*cop_1_lastMvt) = HORIZONTAL;
   1BD5 21r3As00           5396 	ld	hl,#0x000b + 0x000d + _cop
   1BD8 36 00              5397 	ld	(hl),#0x00
                           5398 ;main.c:1652: if ((*cop_1_regard)==DROITE) (*cop_1_pattern1) = 0; // On passe le regard  gauche
   1BDA 21r37s00           5399 	ld	hl,#0x0008 + 0x000d + _cop
   1BDD 7E                 5400 	ld	a, (hl)
   1BDE D6 03              5401 	sub	a,#0x03
   1BE0 20 05              5402 	jr	NZ,00124$
   1BE2 21r35s00           5403 	ld	hl,#0x0006 + 0x000d + _cop
   1BE5 36 00              5404 	ld	(hl),#0x00
   1BE7                    5405 00124$:
                           5406 ;main.c:1653: (*cop_1_regard) = GAUCHE;
   1BE7 21r37s00           5407 	ld	hl,#0x0008 + 0x000d + _cop
   1BEA 36 02              5408 	ld	(hl),#0x02
                           5409 ;main.c:1654: movOk = OK;
   1BEC 0E 00              5410 	ld	c,#0x00
   1BEE 18 36              5411 	jr	00140$
   1BF0                    5412 00131$:
                           5413 ;main.c:1657: if ( ((*cop_1_direction)==DROITE) && isCopDirectionFree(1,DROITE)==OK ) 
   1BF0 21r36s00           5414 	ld	hl,#0x0007 + 0x000d + _cop
   1BF3 7E                 5415 	ld	a, (hl)
   1BF4 D6 03              5416 	sub	a,#0x03
   1BF6 20 2E              5417 	jr	NZ,00140$
   1BF8 C5                 5418 	push	bc
   1BF9 21 01 03           5419 	ld	hl,#0x0301
   1BFC E5                 5420 	push	hl
   1BFD CDr05s0E           5421 	call	_isCopDirectionFree
   1C00 F1                 5422 	pop	af
   1C01 C1                 5423 	pop	bc
   1C02 AF                 5424 	xor	a,a
   1C03 B5                 5425 	or	a,l
   1C04 20 20              5426 	jr	NZ,00140$
                           5427 ;main.c:1659: (*cop_1_px)++;
   1C06 3Ar2Fs00           5428 	ld	a,(#0x000d + _cop)
   1C09 3C                 5429 	inc	a
   1C0A 32r2Fs00           5430 	ld	(#0x000d + _cop),a
                           5431 ;main.c:1660: (*cop_1_lastMvt) = HORIZONTAL;
   1C0D 21r3As00           5432 	ld	hl,#0x000b + 0x000d + _cop
   1C10 36 00              5433 	ld	(hl),#0x00
                           5434 ;main.c:1661: if ((*cop_1_regard)==GAUCHE) (*cop_1_pattern1) = 12; // On passe le regard  droite
   1C12 21r37s00           5435 	ld	hl,#0x0008 + 0x000d + _cop
   1C15 7E                 5436 	ld	a, (hl)
   1C16 D6 02              5437 	sub	a,#0x02
   1C18 20 05              5438 	jr	NZ,00126$
   1C1A 21r35s00           5439 	ld	hl,#0x0006 + 0x000d + _cop
   1C1D 36 0C              5440 	ld	(hl),#0x0C
   1C1F                    5441 00126$:
                           5442 ;main.c:1662: (*cop_1_regard) = DROITE;
   1C1F 21r37s00           5443 	ld	hl,#0x0008 + 0x000d + _cop
   1C22 36 03              5444 	ld	(hl),#0x03
                           5445 ;main.c:1663: movOk = OK;
   1C24 0E 00              5446 	ld	c,#0x00
   1C26                    5447 00140$:
                           5448 ;main.c:1666: if (((*cop_1_direction)==GAUCHE) && ((*cop_1_px)==8))
   1C26 21r36s00           5449 	ld	hl,#0x0007 + 0x000d + _cop
   1C29 46                 5450 	ld	b,(hl)
   1C2A 78                 5451 	ld	a,b
   1C2B D6 02              5452 	sub	a,#0x02
   1C2D 20 27              5453 	jr	NZ,00150$
   1C2F 3Ar2Fs00           5454 	ld	a,(#0x000d + _cop)
   1C32 D6 08              5455 	sub	a,#0x08
   1C34 20 20              5456 	jr	NZ,00150$
                           5457 ;main.c:1668: (*cop_1_px) = 240; //30<<3;
   1C36 21r2Fs00           5458 	ld	hl,#0x000d + _cop
   1C39 36 F0              5459 	ld	(hl),#0xF0
                           5460 ;main.c:1669: (*cop_1_lastMvt) = HORIZONTAL;
   1C3B 21r3As00           5461 	ld	hl,#0x000b + 0x000d + _cop
   1C3E 36 00              5462 	ld	(hl),#0x00
                           5463 ;main.c:1670: if ((*cop_1_regard)==DROITE) (*cop_1_pattern1) = 0; // On passe le regard  gauche
   1C40 21r37s00           5464 	ld	hl,#0x0008 + 0x000d + _cop
   1C43 7E                 5465 	ld	a, (hl)
   1C44 D6 03              5466 	sub	a,#0x03
   1C46 20 05              5467 	jr	NZ,00143$
   1C48 21r35s00           5468 	ld	hl,#0x0006 + 0x000d + _cop
   1C4B 36 00              5469 	ld	(hl),#0x00
   1C4D                    5470 00143$:
                           5471 ;main.c:1671: (*cop_1_regard) = GAUCHE;
   1C4D 21r37s00           5472 	ld	hl,#0x0008 + 0x000d + _cop
   1C50 36 02              5473 	ld	(hl),#0x02
                           5474 ;main.c:1672: movOk = OK;
   1C52 0E 00              5475 	ld	c,#0x00
   1C54 18 2A              5476 	jr	00151$
   1C56                    5477 00150$:
                           5478 ;main.c:1675: if (((*cop_1_direction)==DROITE) && ((*cop_1_px)==232))
   1C56 78                 5479 	ld	a,b
   1C57 D6 03              5480 	sub	a,#0x03
   1C59 20 25              5481 	jr	NZ,00151$
   1C5B 3Ar2Fs00           5482 	ld	a,(#0x000d + _cop)
   1C5E D6 E8              5483 	sub	a,#0xE8
   1C60 20 1E              5484 	jr	NZ,00151$
                           5485 ;main.c:1677: (*cop_1_px) = 0;
   1C62 21r2Fs00           5486 	ld	hl,#0x000d + _cop
   1C65 36 00              5487 	ld	(hl),#0x00
                           5488 ;main.c:1678: (*cop_1_lastMvt) = HORIZONTAL;
   1C67 21r3As00           5489 	ld	hl,#0x000b + 0x000d + _cop
   1C6A 36 00              5490 	ld	(hl),#0x00
                           5491 ;main.c:1679: if ((*cop_1_regard)==GAUCHE) (*cop_1_pattern1) = 12; // On passe le regard  droite
   1C6C 21r37s00           5492 	ld	hl,#0x0008 + 0x000d + _cop
   1C6F 7E                 5493 	ld	a, (hl)
   1C70 D6 02              5494 	sub	a,#0x02
   1C72 20 05              5495 	jr	NZ,00145$
   1C74 21r35s00           5496 	ld	hl,#0x0006 + 0x000d + _cop
   1C77 36 0C              5497 	ld	(hl),#0x0C
   1C79                    5498 00145$:
                           5499 ;main.c:1680: (*cop_1_regard) = DROITE;
   1C79 21r37s00           5500 	ld	hl,#0x0008 + 0x000d + _cop
   1C7C 36 03              5501 	ld	(hl),#0x03
                           5502 ;main.c:1681: movOk = OK;
   1C7E 0E 00              5503 	ld	c,#0x00
   1C80                    5504 00151$:
                           5505 ;main.c:1684: (*cop_1_cx) = (*cop_1_px) >> 3;
   1C80 21r2Fs00           5506 	ld	hl,#0x000d + _cop
   1C83 46                 5507 	ld	b, (hl)
   1C84 CB 38              5508 	srl	b
   1C86 CB 38              5509 	srl	b
   1C88 CB 38              5510 	srl	b
   1C8A 21r31s00           5511 	ld	hl,#0x0002 + 0x000d + _cop
   1C8D 70                 5512 	ld	(hl),b
                           5513 ;main.c:1685: (*cop_1_cy) = (*cop_1_py) >> 3;
   1C8E 2B                 5514 	dec	hl
   1C8F 46                 5515 	ld	b, (hl)
   1C90 CB 38              5516 	srl	b
   1C92 CB 38              5517 	srl	b
   1C94 CB 38              5518 	srl	b
   1C96 23                 5519 	inc	hl
   1C97 23                 5520 	inc	hl
   1C98 70                 5521 	ld	(hl),b
                           5522 ;main.c:1687: if (movOk==NOK) (*cop_1_direction) = rnd_byte(0,3);
   1C99 79                 5523 	ld	a,c
   1C9A D6 01              5524 	sub	a,#0x01
   1C9C 20 0D              5525 	jr	NZ,00154$
   1C9E 21 00 03           5526 	ld	hl,#0x0300
   1CA1 E5                 5527 	push	hl
   1CA2 CDr00s00           5528 	call	_rnd_byte
   1CA5 F1                 5529 	pop	af
   1CA6 4D                 5530 	ld	c,l
   1CA7 21r36s00           5531 	ld	hl,#0x0007 + 0x000d + _cop
   1CAA 71                 5532 	ld	(hl),c
   1CAB                    5533 00154$:
                           5534 ;main.c:1689: return OK;
   1CAB 2E 00              5535 	ld	l,#0x00
   1CAD                    5536 00155$:
   1CAD DD F9              5537 	ld	sp,ix
   1CAF DD E1              5538 	pop	ix
   1CB1 C9                 5539 	ret
   1CB2                    5540 _moveCop1_end::
                           5541 ;main.c:1693: byte moveCop2()
                           5542 ;	---------------------------------
                           5543 ; Function moveCop2
                           5544 ; ---------------------------------
   1CB2                    5545 _moveCop2_start::
   1CB2                    5546 _moveCop2:
   1CB2 DD E5              5547 	push	ix
   1CB4 DD 21 00 00        5548 	ld	ix,#0
   1CB8 DD 39              5549 	add	ix,sp
   1CBA F5                 5550 	push	af
                           5551 ;main.c:1698: s_cop *mycop_2 = &cop[2];	
                           5552 ;main.c:1699: byte *cop_2_py = &mycop_2->py;
                           5553 ;main.c:1700: byte *cop_2_px = &mycop_2->px;
                           5554 ;main.c:1701: byte *cop_2_direction = &mycop_2->direction;
                           5555 ;main.c:1702: byte *cop_2_targetx = &mycop_2->targetx;
                           5556 ;main.c:1703: byte *cop_2_targety = &mycop_2->targety;
                           5557 ;main.c:1704: byte *cop_2_lastMvt = &mycop_2->lastMvt;
                           5558 ;main.c:1705: byte *cop_2_regard = &mycop_2->regard;
                           5559 ;main.c:1706: byte *cop_2_pattern1 = &mycop_2->pattern1;
                           5560 ;main.c:1707: byte *cop_2_cy = &mycop_2->cy;
                           5561 ;main.c:1708: byte *cop_2_cx = &mycop_2->cx;	
                           5562 ;main.c:1709: byte *cop_2_pause = &mycop_2->pause;
                           5563 ;main.c:1711: if ((*cop_2_pause)>0) {(*cop_2_pause)--;return OK;}
   1CBB 21r48s00           5564 	ld	hl,#0x000c + 0x001a + _cop
   1CBE 6E                 5565 	ld	l,(hl)
   1CBF AF                 5566 	xor	a,a
   1CC0 B5                 5567 	or	a,l
   1CC1 28 0B              5568 	jr	Z,00102$
   1CC3 7D                 5569 	ld	a,l
   1CC4 3D                 5570 	dec	a
   1CC5 21r48s00           5571 	ld	hl,#0x000c + 0x001a + _cop
   1CC8 77                 5572 	ld	(hl),a
   1CC9 2E 00              5573 	ld	l,#0x00
   1CCB C3rB4s1E           5574 	jp	00155$
   1CCE                    5575 00102$:
                           5576 ;main.c:1713: movOk = NOK;
   1CCE 0E 01              5577 	ld	c,#0x01
                           5578 ;main.c:1714: directionDesiree = (*cop_2_direction);
   1CD0 21r43s00           5579 	ld	hl,#0x0007 + 0x001a + _cop
   1CD3 46                 5580 	ld	b, (hl)
                           5581 ;main.c:1718: if ( (((*cop_2_px) % 8)==0)&& (((*cop_2_py) % 8)==0) )
   1CD4 3Ar3Cs00           5582 	ld	a,(#0x001a + _cop)
   1CD7 E6 07              5583 	and	a,#0x07
   1CD9 C2r6Fs1D           5584 	jp	NZ,00121$
   1CDC 21r3Ds00           5585 	ld	hl,#0x0001 + 0x001a + _cop
   1CDF 7E                 5586 	ld	a,(hl)
   1CE0 E6 07              5587 	and	a,#0x07
   1CE2 C2r6Fs1D           5588 	jp	NZ,00121$
                           5589 ;main.c:1720: (*cop_2_targetx) = rnd(0,32);
   1CE5 C5                 5590 	push	bc
   1CE6 21 20 00           5591 	ld	hl,#0x0020
   1CE9 E5                 5592 	push	hl
   1CEA 2E 00              5593 	ld	l, #0x00
   1CEC E5                 5594 	push	hl
   1CED CDr00s00           5595 	call	_rnd
   1CF0 F1                 5596 	pop	af
   1CF1 F1                 5597 	pop	af
   1CF2 C1                 5598 	pop	bc
   1CF3 7D                 5599 	ld	a,l
   1CF4 21r40s00           5600 	ld	hl,#0x0004 + 0x001a + _cop
   1CF7 77                 5601 	ld	(hl),a
                           5602 ;main.c:1721: (*cop_2_targety) = rnd(0,24);
   1CF8 C5                 5603 	push	bc
   1CF9 21 18 00           5604 	ld	hl,#0x0018
   1CFC E5                 5605 	push	hl
   1CFD 2E 00              5606 	ld	l, #0x00
   1CFF E5                 5607 	push	hl
   1D00 CDr00s00           5608 	call	_rnd
   1D03 F1                 5609 	pop	af
   1D04 F1                 5610 	pop	af
   1D05 C1                 5611 	pop	bc
   1D06 5D                 5612 	ld	e,l
   1D07 21r41s00           5613 	ld	hl,#0x0005 + 0x001a + _cop
   1D0A 73                 5614 	ld	(hl),e
                           5615 ;main.c:1723: if ( ((*cop_2_targety)<=(*cop_2_cy)) && ((*cop_2_direction)!=BAS) /*&& (haut==OK)*/ ) // Le joueur est au dessus de nous.
   1D0B 56                 5616 	ld	d,(hl)
   1D0C 2B                 5617 	dec	hl
   1D0D 2B                 5618 	dec	hl
   1D0E 7E                 5619 	ld	a,(hl)
   1D0F DD 77 FF           5620 	ld	-1 (ix), a
   1D12 93                 5621 	sub	a,e
   1D13 38 0C              5622 	jr	C,00115$
   1D15 21r43s00           5623 	ld	hl,#0x0007 + 0x001a + _cop
   1D18 7E                 5624 	ld	a, (hl)
   1D19 D6 01              5625 	sub	a,#0x01
   1D1B 28 04              5626 	jr	Z,00115$
                           5627 ;main.c:1725: directionDesiree = HAUT;
   1D1D 06 00              5628 	ld	b,#0x00
   1D1F 18 3A              5629 	jr	00116$
   1D21                    5630 00115$:
                           5631 ;main.c:1728: if ( ((*cop_2_targetx)<=(*cop_2_cx)) && ((*cop_2_direction)!=DROITE) /*&& (gauche==OK)*/ )
   1D21 21r40s00           5632 	ld	hl,#0x0004 + 0x001a + _cop
   1D24 5E                 5633 	ld	e,(hl)
   1D25 2B                 5634 	dec	hl
   1D26 2B                 5635 	dec	hl
   1D27 7E                 5636 	ld	a,(hl)
   1D28 DD 77 FE           5637 	ld	-2 (ix), a
   1D2B 93                 5638 	sub	a,e
   1D2C 38 0C              5639 	jr	C,00111$
   1D2E 21r43s00           5640 	ld	hl,#0x0007 + 0x001a + _cop
   1D31 7E                 5641 	ld	a, (hl)
   1D32 D6 03              5642 	sub	a,#0x03
   1D34 28 04              5643 	jr	Z,00111$
                           5644 ;main.c:1730: directionDesiree = GAUCHE;
   1D36 06 02              5645 	ld	b,#0x02
   1D38 18 21              5646 	jr	00116$
   1D3A                    5647 00111$:
                           5648 ;main.c:1733: if ( ((*cop_2_targety)>=(*cop_2_cy)) && ((*cop_2_direction)!=HAUT) /*&& (bas==OK)*/ )
   1D3A 7A                 5649 	ld	a,d
   1D3B DD 96 FF           5650 	sub	a,-1 (ix)
   1D3E 38 0B              5651 	jr	C,00107$
   1D40 21r43s00           5652 	ld	hl,#0x0007 + 0x001a + _cop
   1D43 7E                 5653 	ld	a,(hl)
   1D44 B7                 5654 	or	a,a
   1D45 28 04              5655 	jr	Z,00107$
                           5656 ;main.c:1735: directionDesiree = BAS;
   1D47 06 01              5657 	ld	b,#0x01
   1D49 18 10              5658 	jr	00116$
   1D4B                    5659 00107$:
                           5660 ;main.c:1738: if ( ((*cop_2_targetx)>=(*cop_2_cx)) && ((*cop_2_direction)!=GAUCHE) /*&& (droite==OK)*/ )
   1D4B 7B                 5661 	ld	a,e
   1D4C DD 96 FE           5662 	sub	a,-2 (ix)
   1D4F 38 0A              5663 	jr	C,00116$
   1D51 21r43s00           5664 	ld	hl,#0x0007 + 0x001a + _cop
   1D54 7E                 5665 	ld	a, (hl)
   1D55 D6 02              5666 	sub	a,#0x02
   1D57 28 02              5667 	jr	Z,00116$
                           5668 ;main.c:1740: directionDesiree = DROITE;
   1D59 06 03              5669 	ld	b,#0x03
   1D5B                    5670 00116$:
                           5671 ;main.c:1743: if (isCopDirectionFree(2,directionDesiree)==OK) 
   1D5B C5                 5672 	push	bc
   1D5C C5                 5673 	push	bc
   1D5D 33                 5674 	inc	sp
   1D5E 3E 02              5675 	ld	a,#0x02
   1D60 F5                 5676 	push	af
   1D61 33                 5677 	inc	sp
   1D62 CDr05s0E           5678 	call	_isCopDirectionFree
   1D65 F1                 5679 	pop	af
   1D66 C1                 5680 	pop	bc
   1D67 AF                 5681 	xor	a,a
   1D68 B5                 5682 	or	a,l
   1D69 20 04              5683 	jr	NZ,00121$
                           5684 ;main.c:1745: (*cop_2_direction) = directionDesiree;
   1D6B 21r43s00           5685 	ld	hl,#0x0007 + 0x001a + _cop
   1D6E 70                 5686 	ld	(hl),b
   1D6F                    5687 00121$:
                           5688 ;main.c:1750: if ( ((*cop_2_direction)==HAUT) && isCopDirectionFree(2,HAUT)==OK ) 
   1D6F 21r43s00           5689 	ld	hl,#0x0007 + 0x001a + _cop
   1D72 7E                 5690 	ld	a,(hl)
   1D73 B7                 5691 	or	a,a
   1D74 20 21              5692 	jr	NZ,00139$
   1D76 C5                 5693 	push	bc
   1D77 21 02 00           5694 	ld	hl,#0x0002
   1D7A E5                 5695 	push	hl
   1D7B CDr05s0E           5696 	call	_isCopDirectionFree
   1D7E F1                 5697 	pop	af
   1D7F C1                 5698 	pop	bc
   1D80 AF                 5699 	xor	a,a
   1D81 B5                 5700 	or	a,l
   1D82 20 13              5701 	jr	NZ,00139$
                           5702 ;main.c:1752: (*cop_2_py)--;
   1D84 21r3Ds00           5703 	ld	hl,#0x0001 + 0x001a + _cop
   1D87 7E                 5704 	ld	a, (hl)
   1D88 3D                 5705 	dec	a
   1D89 21r3Ds00           5706 	ld	hl,#0x0001 + 0x001a + _cop
   1D8C 77                 5707 	ld	(hl),a
                           5708 ;main.c:1753: (*cop_2_lastMvt) = VERTICAL;
   1D8D 21r47s00           5709 	ld	hl,#0x000b + 0x001a + _cop
   1D90 36 01              5710 	ld	(hl),#0x01
                           5711 ;main.c:1754: movOk = OK;
   1D92 0E 00              5712 	ld	c,#0x00
   1D94 C3r2Ds1E           5713 	jp	00140$
   1D97                    5714 00139$:
                           5715 ;main.c:1757: if ( ((*cop_2_direction)==BAS) && isCopDirectionFree(2,BAS)==OK ) 
   1D97 21r43s00           5716 	ld	hl,#0x0007 + 0x001a + _cop
   1D9A 7E                 5717 	ld	a, (hl)
   1D9B D6 01              5718 	sub	a,#0x01
   1D9D 20 20              5719 	jr	NZ,00135$
   1D9F C5                 5720 	push	bc
   1DA0 21 02 01           5721 	ld	hl,#0x0102
   1DA3 E5                 5722 	push	hl
   1DA4 CDr05s0E           5723 	call	_isCopDirectionFree
   1DA7 F1                 5724 	pop	af
   1DA8 C1                 5725 	pop	bc
   1DA9 AF                 5726 	xor	a,a
   1DAA B5                 5727 	or	a,l
   1DAB 20 12              5728 	jr	NZ,00135$
                           5729 ;main.c:1759: (*cop_2_py)++;
   1DAD 21r3Ds00           5730 	ld	hl,#0x0001 + 0x001a + _cop
   1DB0 7E                 5731 	ld	a, (hl)
   1DB1 3C                 5732 	inc	a
   1DB2 21r3Ds00           5733 	ld	hl,#0x0001 + 0x001a + _cop
   1DB5 77                 5734 	ld	(hl),a
                           5735 ;main.c:1760: (*cop_2_lastMvt) = VERTICAL;
   1DB6 21r47s00           5736 	ld	hl,#0x000b + 0x001a + _cop
   1DB9 36 01              5737 	ld	(hl),#0x01
                           5738 ;main.c:1761: movOk = OK;
   1DBB 0E 00              5739 	ld	c,#0x00
   1DBD 18 6E              5740 	jr	00140$
   1DBF                    5741 00135$:
                           5742 ;main.c:1764: if ( ((*cop_2_direction)==GAUCHE) && isCopDirectionFree(2,GAUCHE)==OK ) 
   1DBF 21r43s00           5743 	ld	hl,#0x0007 + 0x001a + _cop
   1DC2 7E                 5744 	ld	a, (hl)
   1DC3 D6 02              5745 	sub	a,#0x02
   1DC5 20 30              5746 	jr	NZ,00131$
   1DC7 C5                 5747 	push	bc
   1DC8 21 02 02           5748 	ld	hl,#0x0202
   1DCB E5                 5749 	push	hl
   1DCC CDr05s0E           5750 	call	_isCopDirectionFree
   1DCF F1                 5751 	pop	af
   1DD0 C1                 5752 	pop	bc
   1DD1 AF                 5753 	xor	a,a
   1DD2 B5                 5754 	or	a,l
   1DD3 20 22              5755 	jr	NZ,00131$
                           5756 ;main.c:1766: (*cop_2_px)--;
   1DD5 3Ar3Cs00           5757 	ld	a,(#0x001a + _cop)
   1DD8 3D                 5758 	dec	a
   1DD9 32r3Cs00           5759 	ld	(#0x001a + _cop),a
                           5760 ;main.c:1767: (*cop_2_lastMvt) = HORIZONTAL;
   1DDC 21r47s00           5761 	ld	hl,#0x000b + 0x001a + _cop
   1DDF 36 00              5762 	ld	(hl),#0x00
                           5763 ;main.c:1768: if ((*cop_2_regard)==DROITE) (*cop_2_pattern1) = 0; // On passe le regard  gauche
   1DE1 21r44s00           5764 	ld	hl,#0x0008 + 0x001a + _cop
   1DE4 7E                 5765 	ld	a, (hl)
   1DE5 D6 03              5766 	sub	a,#0x03
   1DE7 20 05              5767 	jr	NZ,00124$
   1DE9 21r42s00           5768 	ld	hl,#0x0006 + 0x001a + _cop
   1DEC 36 00              5769 	ld	(hl),#0x00
   1DEE                    5770 00124$:
                           5771 ;main.c:1769: (*cop_2_regard) = GAUCHE;
   1DEE 21r44s00           5772 	ld	hl,#0x0008 + 0x001a + _cop
   1DF1 36 02              5773 	ld	(hl),#0x02
                           5774 ;main.c:1770: movOk = OK;
   1DF3 0E 00              5775 	ld	c,#0x00
   1DF5 18 36              5776 	jr	00140$
   1DF7                    5777 00131$:
                           5778 ;main.c:1773: if ( ((*cop_2_direction)==DROITE) && isCopDirectionFree(2,DROITE)==OK ) 
   1DF7 21r43s00           5779 	ld	hl,#0x0007 + 0x001a + _cop
   1DFA 7E                 5780 	ld	a, (hl)
   1DFB D6 03              5781 	sub	a,#0x03
   1DFD 20 2E              5782 	jr	NZ,00140$
   1DFF C5                 5783 	push	bc
   1E00 21 02 03           5784 	ld	hl,#0x0302
   1E03 E5                 5785 	push	hl
   1E04 CDr05s0E           5786 	call	_isCopDirectionFree
   1E07 F1                 5787 	pop	af
   1E08 C1                 5788 	pop	bc
   1E09 AF                 5789 	xor	a,a
   1E0A B5                 5790 	or	a,l
   1E0B 20 20              5791 	jr	NZ,00140$
                           5792 ;main.c:1775: (*cop_2_px)++;
   1E0D 3Ar3Cs00           5793 	ld	a,(#0x001a + _cop)
   1E10 3C                 5794 	inc	a
   1E11 32r3Cs00           5795 	ld	(#0x001a + _cop),a
                           5796 ;main.c:1776: (*cop_2_lastMvt) = HORIZONTAL;
   1E14 21r47s00           5797 	ld	hl,#0x000b + 0x001a + _cop
   1E17 36 00              5798 	ld	(hl),#0x00
                           5799 ;main.c:1777: if ((*cop_2_regard)==GAUCHE) (*cop_2_pattern1) = 12; // On passe le regard  droite
   1E19 21r44s00           5800 	ld	hl,#0x0008 + 0x001a + _cop
   1E1C 7E                 5801 	ld	a, (hl)
   1E1D D6 02              5802 	sub	a,#0x02
   1E1F 20 05              5803 	jr	NZ,00126$
   1E21 21r42s00           5804 	ld	hl,#0x0006 + 0x001a + _cop
   1E24 36 0C              5805 	ld	(hl),#0x0C
   1E26                    5806 00126$:
                           5807 ;main.c:1778: (*cop_2_regard) = DROITE;
   1E26 21r44s00           5808 	ld	hl,#0x0008 + 0x001a + _cop
   1E29 36 03              5809 	ld	(hl),#0x03
                           5810 ;main.c:1779: movOk = OK;
   1E2B 0E 00              5811 	ld	c,#0x00
   1E2D                    5812 00140$:
                           5813 ;main.c:1782: if (((*cop_2_direction)==GAUCHE) && ((*cop_2_px)==8))
   1E2D 21r43s00           5814 	ld	hl,#0x0007 + 0x001a + _cop
   1E30 46                 5815 	ld	b,(hl)
   1E31 78                 5816 	ld	a,b
   1E32 D6 02              5817 	sub	a,#0x02
   1E34 20 27              5818 	jr	NZ,00150$
   1E36 3Ar3Cs00           5819 	ld	a,(#0x001a + _cop)
   1E39 D6 08              5820 	sub	a,#0x08
   1E3B 20 20              5821 	jr	NZ,00150$
                           5822 ;main.c:1784: (*cop_2_px) = 240; //30<<3;
   1E3D 21r3Cs00           5823 	ld	hl,#0x001a + _cop
   1E40 36 F0              5824 	ld	(hl),#0xF0
                           5825 ;main.c:1785: (*cop_2_lastMvt) = HORIZONTAL;
   1E42 21r47s00           5826 	ld	hl,#0x000b + 0x001a + _cop
   1E45 36 00              5827 	ld	(hl),#0x00
                           5828 ;main.c:1786: if ((*cop_2_regard)==DROITE) (*cop_2_pattern1) = 0; // On passe le regard  gauche
   1E47 21r44s00           5829 	ld	hl,#0x0008 + 0x001a + _cop
   1E4A 7E                 5830 	ld	a, (hl)
   1E4B D6 03              5831 	sub	a,#0x03
   1E4D 20 05              5832 	jr	NZ,00143$
   1E4F 21r42s00           5833 	ld	hl,#0x0006 + 0x001a + _cop
   1E52 36 00              5834 	ld	(hl),#0x00
   1E54                    5835 00143$:
                           5836 ;main.c:1787: (*cop_2_regard) = GAUCHE;
   1E54 21r44s00           5837 	ld	hl,#0x0008 + 0x001a + _cop
   1E57 36 02              5838 	ld	(hl),#0x02
                           5839 ;main.c:1788: movOk = OK;
   1E59 0E 00              5840 	ld	c,#0x00
   1E5B 18 2A              5841 	jr	00151$
   1E5D                    5842 00150$:
                           5843 ;main.c:1791: if (((*cop_2_direction)==DROITE) && ((*cop_2_px)==232))
   1E5D 78                 5844 	ld	a,b
   1E5E D6 03              5845 	sub	a,#0x03
   1E60 20 25              5846 	jr	NZ,00151$
   1E62 3Ar3Cs00           5847 	ld	a,(#0x001a + _cop)
   1E65 D6 E8              5848 	sub	a,#0xE8
   1E67 20 1E              5849 	jr	NZ,00151$
                           5850 ;main.c:1793: (*cop_2_px) = 0;
   1E69 21r3Cs00           5851 	ld	hl,#0x001a + _cop
   1E6C 36 00              5852 	ld	(hl),#0x00
                           5853 ;main.c:1794: (*cop_2_lastMvt) = HORIZONTAL;
   1E6E 21r47s00           5854 	ld	hl,#0x000b + 0x001a + _cop
   1E71 36 00              5855 	ld	(hl),#0x00
                           5856 ;main.c:1795: if ((*cop_2_regard)==GAUCHE) (*cop_2_pattern1) = 12; // On passe le regard  droite
   1E73 21r44s00           5857 	ld	hl,#0x0008 + 0x001a + _cop
   1E76 7E                 5858 	ld	a, (hl)
   1E77 D6 02              5859 	sub	a,#0x02
   1E79 20 05              5860 	jr	NZ,00145$
   1E7B 21r42s00           5861 	ld	hl,#0x0006 + 0x001a + _cop
   1E7E 36 0C              5862 	ld	(hl),#0x0C
   1E80                    5863 00145$:
                           5864 ;main.c:1796: (*cop_2_regard) = DROITE;
   1E80 21r44s00           5865 	ld	hl,#0x0008 + 0x001a + _cop
   1E83 36 03              5866 	ld	(hl),#0x03
                           5867 ;main.c:1797: movOk = OK;
   1E85 0E 00              5868 	ld	c,#0x00
   1E87                    5869 00151$:
                           5870 ;main.c:1800: (*cop_2_cx) = (*cop_2_px) >> 3;
   1E87 21r3Cs00           5871 	ld	hl,#0x001a + _cop
   1E8A 46                 5872 	ld	b, (hl)
   1E8B CB 38              5873 	srl	b
   1E8D CB 38              5874 	srl	b
   1E8F CB 38              5875 	srl	b
   1E91 21r3Es00           5876 	ld	hl,#0x0002 + 0x001a + _cop
   1E94 70                 5877 	ld	(hl),b
                           5878 ;main.c:1801: (*cop_2_cy) = (*cop_2_py) >> 3;
   1E95 2B                 5879 	dec	hl
   1E96 46                 5880 	ld	b, (hl)
   1E97 CB 38              5881 	srl	b
   1E99 CB 38              5882 	srl	b
   1E9B CB 38              5883 	srl	b
   1E9D 23                 5884 	inc	hl
   1E9E 23                 5885 	inc	hl
   1E9F 70                 5886 	ld	(hl),b
                           5887 ;main.c:1803: if (movOk==NOK) (*cop_2_direction) = rnd_byte(0,3);
   1EA0 79                 5888 	ld	a,c
   1EA1 D6 01              5889 	sub	a,#0x01
   1EA3 20 0D              5890 	jr	NZ,00154$
   1EA5 21 00 03           5891 	ld	hl,#0x0300
   1EA8 E5                 5892 	push	hl
   1EA9 CDr00s00           5893 	call	_rnd_byte
   1EAC F1                 5894 	pop	af
   1EAD 4D                 5895 	ld	c,l
   1EAE 21r43s00           5896 	ld	hl,#0x0007 + 0x001a + _cop
   1EB1 71                 5897 	ld	(hl),c
   1EB2                    5898 00154$:
                           5899 ;main.c:1805: return OK;
   1EB2 2E 00              5900 	ld	l,#0x00
   1EB4                    5901 00155$:
   1EB4 DD F9              5902 	ld	sp,ix
   1EB6 DD E1              5903 	pop	ix
   1EB8 C9                 5904 	ret
   1EB9                    5905 _moveCop2_end::
                           5906 ;main.c:1809: byte moveCop3()
                           5907 ;	---------------------------------
                           5908 ; Function moveCop3
                           5909 ; ---------------------------------
   1EB9                    5910 _moveCop3_start::
   1EB9                    5911 _moveCop3:
   1EB9 DD E5              5912 	push	ix
   1EBB DD 21 00 00        5913 	ld	ix,#0
   1EBF DD 39              5914 	add	ix,sp
   1EC1 F5                 5915 	push	af
                           5916 ;main.c:1815: s_cop *mycop_3 = &cop[3];	
                           5917 ;main.c:1816: byte *cop_3_py = &mycop_3->py;
                           5918 ;main.c:1817: byte *cop_3_px = &mycop_3->px;
                           5919 ;main.c:1818: byte *cop_3_direction = &mycop_3->direction;
                           5920 ;main.c:1819: byte *cop_3_targetx = &mycop_3->targetx;
                           5921 ;main.c:1820: byte *cop_3_targety = &mycop_3->targety;
                           5922 ;main.c:1821: byte *cop_3_lastMvt = &mycop_3->lastMvt;
                           5923 ;main.c:1822: byte *cop_3_regard = &mycop_3->regard;
                           5924 ;main.c:1823: byte *cop_3_pattern1 = &mycop_3->pattern1;
                           5925 ;main.c:1824: byte *cop_3_cy = &mycop_3->cy;
                           5926 ;main.c:1825: byte *cop_3_cx = &mycop_3->cx;	
                           5927 ;main.c:1826: byte *cop_3_pause = &mycop_3->pause;
                           5928 ;main.c:1828: if ((*cop_3_pause)>0) {(*cop_3_pause)--;return OK;}
   1EC2 21r55s00           5929 	ld	hl,#0x000c + 0x0027 + _cop
   1EC5 6E                 5930 	ld	l,(hl)
   1EC6 AF                 5931 	xor	a,a
   1EC7 B5                 5932 	or	a,l
   1EC8 28 0B              5933 	jr	Z,00102$
   1ECA 7D                 5934 	ld	a,l
   1ECB 3D                 5935 	dec	a
   1ECC 21r55s00           5936 	ld	hl,#0x000c + 0x0027 + _cop
   1ECF 77                 5937 	ld	(hl),a
   1ED0 2E 00              5938 	ld	l,#0x00
   1ED2 C3r2Fs21           5939 	jp	00178$
   1ED5                    5940 00102$:
                           5941 ;main.c:1830: movOk = NOK;
   1ED5 DD 36 FF 01        5942 	ld	-1 (ix),#0x01
                           5943 ;main.c:1831: directionDesiree = (*cop_3_direction);
   1ED9 21r50s00           5944 	ld	hl,#0x0007 + 0x0027 + _cop
   1EDC 46                 5945 	ld	b,(hl)
   1EDD 58                 5946 	ld	e,b
                           5947 ;main.c:1835: if ( (((*cop_3_px) % 8)==0)&& (((*cop_3_py) % 8)==0) )
   1EDE 3Ar49s00           5948 	ld	a,(#0x0027 + _cop)
   1EE1 E6 07              5949 	and	a,#0x07
   1EE3 C2rE4s1F           5950 	jp	NZ,00144$
   1EE6 21r4As00           5951 	ld	hl,#0x0001 + 0x0027 + _cop
   1EE9 7E                 5952 	ld	a,(hl)
   1EEA E6 07              5953 	and	a,#0x07
   1EEC C2rE4s1F           5954 	jp	NZ,00144$
                           5955 ;main.c:1837: if (scatterModeTimer==0)
   1EEF FD 21r8Ds00        5956 	ld	iy,#_scatterModeTimer
   1EF3 FD 7E 00           5957 	ld	a,0 (iy)
   1EF6 FD B6 01           5958 	or	a,1 (iy)
   1EF9 C2r84s1F           5959 	jp	NZ,00124$
                           5960 ;main.c:1839: playercx = player.px>>3;
   1EFC 21r02s00           5961 	ld	hl,#_player
   1EFF 56                 5962 	ld	d, (hl)
   1F00 CB 3A              5963 	srl	d
   1F02 CB 3A              5964 	srl	d
   1F04 CB 3A              5965 	srl	d
                           5966 ;main.c:1840: playercy = player.py>>3;
   1F06 21r03s00           5967 	ld	hl,#0x0001 + _player
   1F09 4E                 5968 	ld	c, (hl)
   1F0A CB 39              5969 	srl	c
   1F0C CB 39              5970 	srl	c
   1F0E CB 39              5971 	srl	c
                           5972 ;main.c:1842: if (player.direction==HAUT)
   1F10 3Ar0Es00           5973 	ld	a,(#0x000c + _player)
   1F13 DD 77 FE           5974 	ld	-2 (ix),a
   1F16 AF                 5975 	xor	a,a
   1F17 DD B6 FE           5976 	or	a,-2 (ix)
   1F1A 20 16              5977 	jr	NZ,00121$
                           5978 ;main.c:1844: (*cop_3_targetx) = playercx;
   1F1C 21r4Ds00           5979 	ld	hl,#0x0004 + 0x0027 + _cop
   1F1F 72                 5980 	ld	(hl),d
                           5981 ;main.c:1845: if ((playercy) >= 4)
                           5982 ;main.c:1846: (*cop_3_targety) = playercy - 4;
   1F20 79                 5983 	ld	a,c
   1F21 FE 04              5984 	cp	a,#0x04
   1F23 38 06              5985 	jr	C,00104$
   1F25 C6 FC              5986 	add	a,#0xFC
   1F27 23                 5987 	inc	hl
   1F28 77                 5988 	ld	(hl),a
   1F29 18 61              5989 	jr	00125$
   1F2B                    5990 00104$:
                           5991 ;main.c:1848: (*cop_3_targety) = 0;
   1F2B 21r4Es00           5992 	ld	hl,#0x0005 + 0x0027 + _cop
   1F2E 36 00              5993 	ld	(hl),#0x00
   1F30 18 5A              5994 	jr	00125$
   1F32                    5995 00121$:
                           5996 ;main.c:1851: if (player.direction==GAUCHE)
   1F32 DD 7E FE           5997 	ld	a,-2 (ix)
   1F35 D6 02              5998 	sub	a,#0x02
   1F37 20 18              5999 	jr	NZ,00118$
                           6000 ;main.c:1853: if (playercx >= 4)
                           6001 ;main.c:1854: (*cop_3_targetx) = playercx - 4;
   1F39 7A                 6002 	ld	a,d
   1F3A FE 04              6003 	cp	a,#0x04
   1F3C 38 08              6004 	jr	C,00107$
   1F3E C6 FC              6005 	add	a,#0xFC
   1F40 21r4Ds00           6006 	ld	hl,#0x0004 + 0x0027 + _cop
   1F43 77                 6007 	ld	(hl),a
   1F44 18 05              6008 	jr	00108$
   1F46                    6009 00107$:
                           6010 ;main.c:1856: (*cop_3_targetx) = 0;
   1F46 21r4Ds00           6011 	ld	hl,#0x0004 + 0x0027 + _cop
   1F49 36 00              6012 	ld	(hl),#0x00
   1F4B                    6013 00108$:
                           6014 ;main.c:1858: (*cop_3_targety) = playercy;
   1F4B 21r4Es00           6015 	ld	hl,#0x0005 + 0x0027 + _cop
   1F4E 71                 6016 	ld	(hl),c
   1F4F 18 3B              6017 	jr	00125$
   1F51                    6018 00118$:
                           6019 ;main.c:1861: if (player.direction==BAS)
   1F51 DD 7E FE           6020 	ld	a,-2 (ix)
   1F54 D6 01              6021 	sub	a,#0x01
   1F56 20 0B              6022 	jr	NZ,00115$
                           6023 ;main.c:1863: (*cop_3_targetx) = playercx;
   1F58 21r4Ds00           6024 	ld	hl,#0x0004 + 0x0027 + _cop
   1F5B 72                 6025 	ld	(hl),d
                           6026 ;main.c:1864: (*cop_3_targety) = playercy + 4;
   1F5C 79                 6027 	ld	a,c
   1F5D C6 04              6028 	add	a,#0x04
   1F5F 23                 6029 	inc	hl
   1F60 77                 6030 	ld	(hl),a
   1F61 18 29              6031 	jr	00125$
   1F63                    6032 00115$:
                           6033 ;main.c:1868: if (player.direction==DROITE)
   1F63 DD 7E FE           6034 	ld	a,-2 (ix)
   1F66 D6 03              6035 	sub	a,#0x03
   1F68 20 0B              6036 	jr	NZ,00112$
                           6037 ;main.c:1870: (*cop_3_targetx) = playercx+4;
   1F6A 7A                 6038 	ld	a,d
   1F6B C6 04              6039 	add	a,#0x04
   1F6D 21r4Ds00           6040 	ld	hl,#0x0004 + 0x0027 + _cop
   1F70 77                 6041 	ld	(hl),a
                           6042 ;main.c:1871: (*cop_3_targety) = playercy;
   1F71 23                 6043 	inc	hl
   1F72 71                 6044 	ld	(hl),c
   1F73 18 17              6045 	jr	00125$
   1F75                    6046 00112$:
                           6047 ;main.c:1874: if (player.direction==STOP)
   1F75 DD 7E FE           6048 	ld	a,-2 (ix)
   1F78 D6 04              6049 	sub	a,#0x04
   1F7A 20 10              6050 	jr	NZ,00125$
                           6051 ;main.c:1876: (*cop_3_targetx) = playercx;
   1F7C 21r4Ds00           6052 	ld	hl,#0x0004 + 0x0027 + _cop
   1F7F 72                 6053 	ld	(hl),d
                           6054 ;main.c:1877: (*cop_3_targety) = playercy;
   1F80 23                 6055 	inc	hl
   1F81 71                 6056 	ld	(hl),c
   1F82 18 08              6057 	jr	00125$
   1F84                    6058 00124$:
                           6059 ;main.c:1882: (*cop_3_targetx) = 25;
   1F84 21r4Ds00           6060 	ld	hl,#0x0004 + 0x0027 + _cop
   1F87 36 19              6061 	ld	(hl),#0x19
                           6062 ;main.c:1883: (*cop_3_targety) = 1;
   1F89 23                 6063 	inc	hl
   1F8A 36 01              6064 	ld	(hl),#0x01
   1F8C                    6065 00125$:
                           6066 ;main.c:1885: if ( ((*cop_3_targety)<(*cop_3_cy)) && ((*cop_3_direction)!=BAS)) // Le joueur est au dessus de nous.
   1F8C 21r4Es00           6067 	ld	hl,#0x0005 + 0x0027 + _cop
   1F8F 4E                 6068 	ld	c,(hl)
   1F90 2B                 6069 	dec	hl
   1F91 2B                 6070 	dec	hl
   1F92 56                 6071 	ld	d,(hl)
   1F93 79                 6072 	ld	a,c
   1F94 92                 6073 	sub	a,d
   1F95 30 09              6074 	jr	NC,00138$
   1F97 78                 6075 	ld	a,b
   1F98 D6 01              6076 	sub	a,#0x01
   1F9A 28 04              6077 	jr	Z,00138$
                           6078 ;main.c:1887: directionDesiree = HAUT;
   1F9C 1E 00              6079 	ld	e,#0x00
   1F9E 18 32              6080 	jr	00139$
   1FA0                    6081 00138$:
                           6082 ;main.c:1890: if ( ((*cop_3_targetx)<(*cop_3_cx)) && ((*cop_3_direction)!=DROITE))
   1FA0 21r4Ds00           6083 	ld	hl,#0x0004 + 0x0027 + _cop
   1FA3 7E                 6084 	ld	a,(hl)
   1FA4 DD 77 FE           6085 	ld	-2 (ix),a
   1FA7 2B                 6086 	dec	hl
   1FA8 2B                 6087 	dec	hl
   1FA9 6E                 6088 	ld	l,(hl)
   1FAA DD 7E FE           6089 	ld	a,-2 (ix)
   1FAD 95                 6090 	sub	a,l
   1FAE 30 09              6091 	jr	NC,00134$
   1FB0 78                 6092 	ld	a,b
   1FB1 D6 03              6093 	sub	a,#0x03
   1FB3 28 04              6094 	jr	Z,00134$
                           6095 ;main.c:1892: directionDesiree = GAUCHE;
   1FB5 1E 02              6096 	ld	e,#0x02
   1FB7 18 19              6097 	jr	00139$
   1FB9                    6098 00134$:
                           6099 ;main.c:1895: if ( ((*cop_3_targety)>(*cop_3_cy)) && ((*cop_3_direction)!=HAUT))
   1FB9 7A                 6100 	ld	a,d
   1FBA 91                 6101 	sub	a,c
   1FBB 30 08              6102 	jr	NC,00130$
   1FBD AF                 6103 	xor	a,a
   1FBE B0                 6104 	or	a,b
   1FBF 28 04              6105 	jr	Z,00130$
                           6106 ;main.c:1897: directionDesiree = BAS;
   1FC1 1E 01              6107 	ld	e,#0x01
   1FC3 18 0D              6108 	jr	00139$
   1FC5                    6109 00130$:
                           6110 ;main.c:1900: if ( ((*cop_3_targetx)>(*cop_3_cx)) && ((*cop_3_direction)!=GAUCHE))
   1FC5 7D                 6111 	ld	a,l
   1FC6 DD 96 FE           6112 	sub	a,-2 (ix)
   1FC9 30 07              6113 	jr	NC,00139$
   1FCB 78                 6114 	ld	a,b
   1FCC D6 02              6115 	sub	a,#0x02
   1FCE 28 02              6116 	jr	Z,00139$
                           6117 ;main.c:1902: directionDesiree = DROITE;
   1FD0 1E 03              6118 	ld	e,#0x03
   1FD2                    6119 00139$:
                           6120 ;main.c:1905: if (isCopDirectionFree(3,directionDesiree)==OK) 
   1FD2 D5                 6121 	push	de
   1FD3 53                 6122 	ld	d, e
   1FD4 1E 03              6123 	ld	e,#0x03
   1FD6 D5                 6124 	push	de
   1FD7 CDr05s0E           6125 	call	_isCopDirectionFree
   1FDA F1                 6126 	pop	af
   1FDB D1                 6127 	pop	de
   1FDC AF                 6128 	xor	a,a
   1FDD B5                 6129 	or	a,l
   1FDE 20 04              6130 	jr	NZ,00144$
                           6131 ;main.c:1907: (*cop_3_direction) = directionDesiree;
   1FE0 21r50s00           6132 	ld	hl,#0x0007 + 0x0027 + _cop
   1FE3 73                 6133 	ld	(hl),e
   1FE4                    6134 00144$:
                           6135 ;main.c:1912: if ( ((*cop_3_direction)==HAUT) && isCopDirectionFree(3,HAUT)==OK ) 
   1FE4 21r50s00           6136 	ld	hl,#0x0007 + 0x0027 + _cop
   1FE7 7E                 6137 	ld	a,(hl)
   1FE8 B7                 6138 	or	a,a
   1FE9 20 21              6139 	jr	NZ,00162$
   1FEB 21 03 00           6140 	ld	hl,#0x0003
   1FEE E5                 6141 	push	hl
   1FEF CDr05s0E           6142 	call	_isCopDirectionFree
   1FF2 F1                 6143 	pop	af
   1FF3 AF                 6144 	xor	a,a
   1FF4 B5                 6145 	or	a,l
   1FF5 20 15              6146 	jr	NZ,00162$
                           6147 ;main.c:1914: (*cop_3_py)--;
   1FF7 21r4As00           6148 	ld	hl,#0x0001 + 0x0027 + _cop
   1FFA 7E                 6149 	ld	a, (hl)
   1FFB 3D                 6150 	dec	a
   1FFC 21r4As00           6151 	ld	hl,#0x0001 + 0x0027 + _cop
   1FFF 77                 6152 	ld	(hl),a
                           6153 ;main.c:1915: (*cop_3_lastMvt) = VERTICAL;
   2000 21r54s00           6154 	ld	hl,#0x000b + 0x0027 + _cop
   2003 36 01              6155 	ld	(hl),#0x01
                           6156 ;main.c:1916: movOk = OK;
   2005 DD 36 FF 00        6157 	ld	-1 (ix),#0x00
   2009 C3rA2s20           6158 	jp	00163$
   200C                    6159 00162$:
                           6160 ;main.c:1919: if ( ((*cop_3_direction)==BAS) && isCopDirectionFree(3,BAS)==OK ) 
   200C 21r50s00           6161 	ld	hl,#0x0007 + 0x0027 + _cop
   200F 7E                 6162 	ld	a, (hl)
   2010 D6 01              6163 	sub	a,#0x01
   2012 20 20              6164 	jr	NZ,00158$
   2014 21 03 01           6165 	ld	hl,#0x0103
   2017 E5                 6166 	push	hl
   2018 CDr05s0E           6167 	call	_isCopDirectionFree
   201B F1                 6168 	pop	af
   201C AF                 6169 	xor	a,a
   201D B5                 6170 	or	a,l
   201E 20 14              6171 	jr	NZ,00158$
                           6172 ;main.c:1921: (*cop_3_py)++;
   2020 21r4As00           6173 	ld	hl,#0x0001 + 0x0027 + _cop
   2023 7E                 6174 	ld	a, (hl)
   2024 3C                 6175 	inc	a
   2025 21r4As00           6176 	ld	hl,#0x0001 + 0x0027 + _cop
   2028 77                 6177 	ld	(hl),a
                           6178 ;main.c:1922: (*cop_3_lastMvt) = VERTICAL;
   2029 21r54s00           6179 	ld	hl,#0x000b + 0x0027 + _cop
   202C 36 01              6180 	ld	(hl),#0x01
                           6181 ;main.c:1923: movOk = OK;
   202E DD 36 FF 00        6182 	ld	-1 (ix),#0x00
   2032 18 6E              6183 	jr	00163$
   2034                    6184 00158$:
                           6185 ;main.c:1926: if ( ((*cop_3_direction)==GAUCHE) && isCopDirectionFree(3,GAUCHE)==OK ) 
   2034 21r50s00           6186 	ld	hl,#0x0007 + 0x0027 + _cop
   2037 7E                 6187 	ld	a, (hl)
   2038 D6 02              6188 	sub	a,#0x02
   203A 20 30              6189 	jr	NZ,00154$
   203C 21 03 02           6190 	ld	hl,#0x0203
   203F E5                 6191 	push	hl
   2040 CDr05s0E           6192 	call	_isCopDirectionFree
   2043 F1                 6193 	pop	af
   2044 AF                 6194 	xor	a,a
   2045 B5                 6195 	or	a,l
   2046 20 24              6196 	jr	NZ,00154$
                           6197 ;main.c:1928: (*cop_3_px)--;
   2048 3Ar49s00           6198 	ld	a,(#0x0027 + _cop)
   204B 3D                 6199 	dec	a
   204C 32r49s00           6200 	ld	(#0x0027 + _cop),a
                           6201 ;main.c:1929: (*cop_3_lastMvt) = HORIZONTAL;
   204F 21r54s00           6202 	ld	hl,#0x000b + 0x0027 + _cop
   2052 36 00              6203 	ld	(hl),#0x00
                           6204 ;main.c:1930: if ((*cop_3_regard)==DROITE) (*cop_3_pattern1) = 0; // On passe le regard  gauche
   2054 21r51s00           6205 	ld	hl,#0x0008 + 0x0027 + _cop
   2057 7E                 6206 	ld	a, (hl)
   2058 D6 03              6207 	sub	a,#0x03
   205A 20 05              6208 	jr	NZ,00147$
   205C 21r4Fs00           6209 	ld	hl,#0x0006 + 0x0027 + _cop
   205F 36 00              6210 	ld	(hl),#0x00
   2061                    6211 00147$:
                           6212 ;main.c:1931: (*cop_3_regard) = GAUCHE;
   2061 21r51s00           6213 	ld	hl,#0x0008 + 0x0027 + _cop
   2064 36 02              6214 	ld	(hl),#0x02
                           6215 ;main.c:1932: movOk = OK;
   2066 DD 36 FF 00        6216 	ld	-1 (ix),#0x00
   206A 18 36              6217 	jr	00163$
   206C                    6218 00154$:
                           6219 ;main.c:1935: if ( ((*cop_3_direction)==DROITE) && isCopDirectionFree(3,DROITE)==OK ) 
   206C 21r50s00           6220 	ld	hl,#0x0007 + 0x0027 + _cop
   206F 7E                 6221 	ld	a, (hl)
   2070 D6 03              6222 	sub	a,#0x03
   2072 20 2E              6223 	jr	NZ,00163$
   2074 21 03 03           6224 	ld	hl,#0x0303
   2077 E5                 6225 	push	hl
   2078 CDr05s0E           6226 	call	_isCopDirectionFree
   207B F1                 6227 	pop	af
   207C AF                 6228 	xor	a,a
   207D B5                 6229 	or	a,l
   207E 20 22              6230 	jr	NZ,00163$
                           6231 ;main.c:1937: (*cop_3_px)++;
   2080 3Ar49s00           6232 	ld	a,(#0x0027 + _cop)
   2083 3C                 6233 	inc	a
   2084 32r49s00           6234 	ld	(#0x0027 + _cop),a
                           6235 ;main.c:1938: (*cop_3_lastMvt) = HORIZONTAL;
   2087 21r54s00           6236 	ld	hl,#0x000b + 0x0027 + _cop
   208A 36 00              6237 	ld	(hl),#0x00
                           6238 ;main.c:1939: if ((*cop_3_regard)==GAUCHE) (*cop_3_pattern1) = 12; // On passe le regard  droite
   208C 21r51s00           6239 	ld	hl,#0x0008 + 0x0027 + _cop
   208F 7E                 6240 	ld	a, (hl)
   2090 D6 02              6241 	sub	a,#0x02
   2092 20 05              6242 	jr	NZ,00149$
   2094 21r4Fs00           6243 	ld	hl,#0x0006 + 0x0027 + _cop
   2097 36 0C              6244 	ld	(hl),#0x0C
   2099                    6245 00149$:
                           6246 ;main.c:1940: (*cop_3_regard) = DROITE;
   2099 21r51s00           6247 	ld	hl,#0x0008 + 0x0027 + _cop
   209C 36 03              6248 	ld	(hl),#0x03
                           6249 ;main.c:1941: movOk = OK;
   209E DD 36 FF 00        6250 	ld	-1 (ix),#0x00
   20A2                    6251 00163$:
                           6252 ;main.c:1944: if (((*cop_3_direction)==GAUCHE) && ((*cop_3_px)==8))
   20A2 21r50s00           6253 	ld	hl,#0x0007 + 0x0027 + _cop
   20A5 4E                 6254 	ld	c,(hl)
   20A6 79                 6255 	ld	a,c
   20A7 D6 02              6256 	sub	a,#0x02
   20A9 20 29              6257 	jr	NZ,00173$
   20AB 3Ar49s00           6258 	ld	a,(#0x0027 + _cop)
   20AE D6 08              6259 	sub	a,#0x08
   20B0 20 22              6260 	jr	NZ,00173$
                           6261 ;main.c:1946: (*cop_3_px) = 240;
   20B2 21r49s00           6262 	ld	hl,#0x0027 + _cop
   20B5 36 F0              6263 	ld	(hl),#0xF0
                           6264 ;main.c:1947: (*cop_3_lastMvt) = HORIZONTAL;
   20B7 21r54s00           6265 	ld	hl,#0x000b + 0x0027 + _cop
   20BA 36 00              6266 	ld	(hl),#0x00
                           6267 ;main.c:1948: if ((*cop_3_regard)==DROITE) (*cop_3_pattern1) = 0; // On passe le regard  gauche
   20BC 21r51s00           6268 	ld	hl,#0x0008 + 0x0027 + _cop
   20BF 7E                 6269 	ld	a, (hl)
   20C0 D6 03              6270 	sub	a,#0x03
   20C2 20 05              6271 	jr	NZ,00166$
   20C4 21r4Fs00           6272 	ld	hl,#0x0006 + 0x0027 + _cop
   20C7 36 00              6273 	ld	(hl),#0x00
   20C9                    6274 00166$:
                           6275 ;main.c:1949: (*cop_3_regard) = GAUCHE;
   20C9 21r51s00           6276 	ld	hl,#0x0008 + 0x0027 + _cop
   20CC 36 02              6277 	ld	(hl),#0x02
                           6278 ;main.c:1950: movOk = OK;
   20CE DD 36 FF 00        6279 	ld	-1 (ix),#0x00
   20D2 18 2C              6280 	jr	00174$
   20D4                    6281 00173$:
                           6282 ;main.c:1953: if (((*cop_3_direction)==DROITE) && ((*cop_3_px)==232))
   20D4 79                 6283 	ld	a,c
   20D5 D6 03              6284 	sub	a,#0x03
   20D7 20 27              6285 	jr	NZ,00174$
   20D9 3Ar49s00           6286 	ld	a,(#0x0027 + _cop)
   20DC D6 E8              6287 	sub	a,#0xE8
   20DE 20 20              6288 	jr	NZ,00174$
                           6289 ;main.c:1955: (*cop_3_px) = 0;
   20E0 21r49s00           6290 	ld	hl,#0x0027 + _cop
   20E3 36 00              6291 	ld	(hl),#0x00
                           6292 ;main.c:1956: (*cop_3_lastMvt) = HORIZONTAL;
   20E5 21r54s00           6293 	ld	hl,#0x000b + 0x0027 + _cop
   20E8 36 00              6294 	ld	(hl),#0x00
                           6295 ;main.c:1957: if ((*cop_3_regard)==GAUCHE) (*cop_3_pattern1) = 12; // On passe le regard  droite
   20EA 21r51s00           6296 	ld	hl,#0x0008 + 0x0027 + _cop
   20ED 7E                 6297 	ld	a, (hl)
   20EE D6 02              6298 	sub	a,#0x02
   20F0 20 05              6299 	jr	NZ,00168$
   20F2 21r4Fs00           6300 	ld	hl,#0x0006 + 0x0027 + _cop
   20F5 36 0C              6301 	ld	(hl),#0x0C
   20F7                    6302 00168$:
                           6303 ;main.c:1958: (*cop_3_regard) = DROITE;
   20F7 21r51s00           6304 	ld	hl,#0x0008 + 0x0027 + _cop
   20FA 36 03              6305 	ld	(hl),#0x03
                           6306 ;main.c:1959: movOk = OK;
   20FC DD 36 FF 00        6307 	ld	-1 (ix),#0x00
   2100                    6308 00174$:
                           6309 ;main.c:1962: (*cop_3_cx) = (*cop_3_px) >> 3;
   2100 21r49s00           6310 	ld	hl,#0x0027 + _cop
   2103 4E                 6311 	ld	c, (hl)
   2104 CB 39              6312 	srl	c
   2106 CB 39              6313 	srl	c
   2108 CB 39              6314 	srl	c
   210A 21r4Bs00           6315 	ld	hl,#0x0002 + 0x0027 + _cop
   210D 71                 6316 	ld	(hl),c
                           6317 ;main.c:1963: (*cop_3_cy) = (*cop_3_py) >> 3;
   210E 2B                 6318 	dec	hl
   210F 4E                 6319 	ld	c, (hl)
   2110 CB 39              6320 	srl	c
   2112 CB 39              6321 	srl	c
   2114 CB 39              6322 	srl	c
   2116 23                 6323 	inc	hl
   2117 23                 6324 	inc	hl
   2118 71                 6325 	ld	(hl),c
                           6326 ;main.c:1965: if (movOk==NOK) (*cop_3_direction) = rnd_byte(0,3);
   2119 DD 7E FF           6327 	ld	a,-1 (ix)
   211C D6 01              6328 	sub	a,#0x01
   211E 20 0D              6329 	jr	NZ,00177$
   2120 21 00 03           6330 	ld	hl,#0x0300
   2123 E5                 6331 	push	hl
   2124 CDr00s00           6332 	call	_rnd_byte
   2127 F1                 6333 	pop	af
   2128 4D                 6334 	ld	c,l
   2129 21r50s00           6335 	ld	hl,#0x0007 + 0x0027 + _cop
   212C 71                 6336 	ld	(hl),c
   212D                    6337 00177$:
                           6338 ;main.c:1967: return OK;
   212D 2E 00              6339 	ld	l,#0x00
   212F                    6340 00178$:
   212F DD F9              6341 	ld	sp,ix
   2131 DD E1              6342 	pop	ix
   2133 C9                 6343 	ret
   2134                    6344 _moveCop3_end::
                           6345 ;main.c:1970: void renderCop(byte c)
                           6346 ;	---------------------------------
                           6347 ; Function renderCop
                           6348 ; ---------------------------------
   2134                    6349 _renderCop_start::
   2134                    6350 _renderCop:
   2134 DD E5              6351 	push	ix
   2136 DD 21 00 00        6352 	ld	ix,#0
   213A DD 39              6353 	add	ix,sp
   213C 21 F6 FF           6354 	ld	hl,#-10
   213F 39                 6355 	add	hl,sp
   2140 F9                 6356 	ld	sp,hl
                           6357 ;main.c:1974: s_cop *mycop = &cop[c];	
   2141 DD 7E 04           6358 	ld	a,4 (ix)
   2144 5F                 6359 	ld	e,a
   2145 87                 6360 	add	a,a
   2146 83                 6361 	add	a,e
   2147 87                 6362 	add	a,a
   2148 87                 6363 	add	a,a
   2149 83                 6364 	add	a,e
   214A C6r22              6365 	add	a,#<(_cop)
   214C 4F                 6366 	ld	c,a
   214D 3Es00              6367 	ld	a,#>(_cop)
   214F CE 00              6368 	adc	a,#0x00
   2151 DD 71 FE           6369 	ld	-2 (ix), c
   2154 DD 77 FF           6370 	ld	-1 (ix), a
                           6371 ;main.c:1975: byte *cop_py = &mycop->py;
   2157 DD 7E FE           6372 	ld	a,-2 (ix)
   215A C6 01              6373 	add	a,#0x01
   215C DD 77 FC           6374 	ld	-4 (ix),a
   215F DD 7E FF           6375 	ld	a,-1 (ix)
   2162 CE 00              6376 	adc	a,#0x00
   2164 DD 77 FD           6377 	ld	-3 (ix),a
                           6378 ;main.c:1978: byte *cop_sprno = &mycop->sprno;
   2167 DD 7E FE           6379 	ld	a,-2 (ix)
   216A C6 09              6380 	add	a,#0x09
   216C 4F                 6381 	ld	c,a
   216D DD 7E FF           6382 	ld	a,-1 (ix)
   2170 CE 00              6383 	adc	a,#0x00
   2172 47                 6384 	ld	b,a
                           6385 ;main.c:1979: byte *cop_pattern1 = &mycop->pattern1;
   2173 DD 7E FE           6386 	ld	a,-2 (ix)
   2176 C6 06              6387 	add	a,#0x06
   2178 DD 77 FA           6388 	ld	-6 (ix),a
   217B DD 7E FF           6389 	ld	a,-1 (ix)
   217E CE 00              6390 	adc	a,#0x00
   2180 DD 77 FB           6391 	ld	-5 (ix),a
                           6392 ;main.c:1980: byte *cop_colour = &mycop->col;
   2183 DD 7E FE           6393 	ld	a,-2 (ix)
   2186 C6 0A              6394 	add	a,#0x0A
   2188 DD 77 F8           6395 	ld	-8 (ix),a
   218B DD 7E FF           6396 	ld	a,-1 (ix)
   218E CE 00              6397 	adc	a,#0x00
   2190 DD 77 F9           6398 	ld	-7 (ix),a
                           6399 ;main.c:1981: byte *cop_regard = &mycop->regard;
   2193 DD 7E FE           6400 	ld	a,-2 (ix)
   2196 C6 08              6401 	add	a,#0x08
   2198 DD 77 F6           6402 	ld	-10 (ix),a
   219B DD 7E FF           6403 	ld	a,-1 (ix)
   219E CE 00              6404 	adc	a,#0x00
   21A0 DD 77 F7           6405 	ld	-9 (ix),a
                           6406 ;main.c:2031: sprites[(*cop_sprno)].y = (*cop_py); // Non on l'affiche
   21A3 0A                 6407 	ld	a,(bc)
   21A4 87                 6408 	add	a,a
   21A5 87                 6409 	add	a,a
   21A6 4F                 6410 	ld	c, a
   21A7 C6r00              6411 	add	a,#<(_sprites)
   21A9 47                 6412 	ld	b,a
   21AA 3Es00              6413 	ld	a,#>(_sprites)
   21AC CE 00              6414 	adc	a,#0x00
   21AE 5F                 6415 	ld	e,a
   21AF DD 6E FC           6416 	ld	l,-4 (ix)
   21B2 DD 66 FD           6417 	ld	h,-3 (ix)
   21B5 7E                 6418 	ld	a,(hl)
   21B6 68                 6419 	ld	l,b
   21B7 63                 6420 	ld	h,e
   21B8 77                 6421 	ld	(hl),a
                           6422 ;main.c:2033: sprites[(*cop_sprno)].x = (*cop_px);		
   21B9 3Er00              6423 	ld	a,#<(_sprites)
   21BB 81                 6424 	add	a,c
   21BC 4F                 6425 	ld	c,a
   21BD 3Es00              6426 	ld	a,#>(_sprites)
   21BF CE 00              6427 	adc	a,#0x00
   21C1 47                 6428 	ld	b, a
   21C2 59                 6429 	ld	e, c
   21C3 57                 6430 	ld	d, a
   21C4 13                 6431 	inc	de
   21C5 DD 6E FE           6432 	ld	l,-2 (ix)
   21C8 DD 66 FF           6433 	ld	h,-1 (ix)
   21CB 7E                 6434 	ld	a,(hl)
   21CC 12                 6435 	ld	(de),a
                           6436 ;main.c:2036: if (animateSprite==0)
   21CD AF                 6437 	xor	a,a
   21CE 21r8Cs00           6438 	ld	hl,#_animateSprite + 0
   21D1 B6                 6439 	or	a,(hl)
   21D2 20 45              6440 	jr	NZ,00109$
                           6441 ;main.c:2038: (*cop_pattern1)+=4;
   21D4 DD 6E FA           6442 	ld	l,-6 (ix)
   21D7 DD 66 FB           6443 	ld	h,-5 (ix)
   21DA 7E                 6444 	ld	a, (hl)
   21DB C6 04              6445 	add	a,#0x04
   21DD DD 6E FA           6446 	ld	l,-6 (ix)
   21E0 DD 66 FB           6447 	ld	h,-5 (ix)
   21E3 77                 6448 	ld	(hl),a
                           6449 ;main.c:2039: if ((*cop_regard)==DROITE)
   21E4 DD 6E F6           6450 	ld	l,-10 (ix)
   21E7 DD 66 F7           6451 	ld	h,-9 (ix)
   21EA 7E                 6452 	ld	a, (hl)
   21EB D6 03              6453 	sub	a,#0x03
   21ED 20 16              6454 	jr	NZ,00106$
                           6455 ;main.c:2041: if ((*cop_pattern1)>20) (*cop_pattern1)=12; 
   21EF DD 6E FA           6456 	ld	l,-6 (ix)
   21F2 DD 66 FB           6457 	ld	h,-5 (ix)
   21F5 6E                 6458 	ld	l,(hl)
   21F6 3E 14              6459 	ld	a,#0x14
   21F8 95                 6460 	sub	a,l
   21F9 30 1E              6461 	jr	NC,00109$
   21FB DD 6E FA           6462 	ld	l,-6 (ix)
   21FE DD 66 FB           6463 	ld	h,-5 (ix)
   2201 36 0C              6464 	ld	(hl),#0x0C
   2203 18 14              6465 	jr	00109$
   2205                    6466 00106$:
                           6467 ;main.c:2044: if ((*cop_pattern1)>8) (*cop_pattern1)=0;
   2205 DD 6E FA           6468 	ld	l,-6 (ix)
   2208 DD 66 FB           6469 	ld	h,-5 (ix)
   220B 6E                 6470 	ld	l,(hl)
   220C 3E 08              6471 	ld	a,#0x08
   220E 95                 6472 	sub	a,l
   220F 30 08              6473 	jr	NC,00109$
   2211 DD 6E FA           6474 	ld	l,-6 (ix)
   2214 DD 66 FB           6475 	ld	h,-5 (ix)
   2217 36 00              6476 	ld	(hl),#0x00
   2219                    6477 00109$:
                           6478 ;main.c:2047: sprites[(*cop_sprno)].pattern = (*cop_pattern1);
   2219 59                 6479 	ld	e,c
   221A 50                 6480 	ld	d,b
   221B 13                 6481 	inc	de
   221C 13                 6482 	inc	de
   221D DD 6E FA           6483 	ld	l,-6 (ix)
   2220 DD 66 FB           6484 	ld	h,-5 (ix)
   2223 7E                 6485 	ld	a,(hl)
   2224 12                 6486 	ld	(de),a
                           6487 ;main.c:2048: sprites[(*cop_sprno)].colour = (*cop_colour);	
   2225 03                 6488 	inc	bc
   2226 03                 6489 	inc	bc
   2227 03                 6490 	inc	bc
   2228 DD 6E F8           6491 	ld	l,-8 (ix)
   222B DD 66 F9           6492 	ld	h,-7 (ix)
   222E 7E                 6493 	ld	a,(hl)
   222F 02                 6494 	ld	(bc),a
   2230 DD F9              6495 	ld	sp,ix
   2232 DD E1              6496 	pop	ix
   2234 C9                 6497 	ret
   2235                    6498 _renderCop_end::
                           6499 ;main.c:2052: void renderDoors()
                           6500 ;	---------------------------------
                           6501 ; Function renderDoors
                           6502 ; ---------------------------------
   2235                    6503 _renderDoors_start::
   2235                    6504 _renderDoors:
                           6505 ;main.c:2054: s_playerDoors *pd0 = &playerDoors[0];
                           6506 ;main.c:2055: s_playerDoors *pd1 = &playerDoors[1];
                           6507 ;main.c:2057: byte *pd0_affiche = &pd0->affiche;
                           6508 ;main.c:2058: unsigned *pd0_timer = &pd0->timer;
                           6509 ;main.c:2059: byte *pd0_c1x = &pd0->c1x;
                           6510 ;main.c:2060: byte *pd0_c1y = &pd0->c1y;
                           6511 ;main.c:2061: byte *pd0_c2x = &pd0->c2x;
                           6512 ;main.c:2062: byte *pd0_c2y = &pd0->c2y;
                           6513 ;main.c:2063: byte *pd0_c1 = &pd0->c1;
                           6514 ;main.c:2064: byte *pd0_c2 = &pd0->c2;
                           6515 ;main.c:2066: byte *pd1_affiche = &pd1->affiche;
                           6516 ;main.c:2067: unsigned *pd1_timer = &pd1->timer;
                           6517 ;main.c:2068: byte *pd1_c1x = &pd1->c1x;
                           6518 ;main.c:2069: byte *pd1_c1y = &pd1->c1y;
                           6519 ;main.c:2070: byte *pd1_c2x = &pd1->c2x;
                           6520 ;main.c:2071: byte *pd1_c2y = &pd1->c2y;
                           6521 ;main.c:2072: byte *pd1_c1 = &pd1->c1;
                           6522 ;main.c:2073: byte *pd1_c2 = &pd1->c2;
                           6523 ;main.c:2076: if ( ((*pd0_timer) == 0) && ((*pd0_affiche) == OK) ) // On efface la porte
   2235 21r56s00           6524 	ld	hl,#_playerDoors
   2238 7E                 6525 	ld	a,(hl)
   2239 23                 6526 	inc	hl
   223A B6                 6527 	or	a,(hl)
   223B 20 39              6528 	jr	NZ,00102$
   223D 3Ar5Es00           6529 	ld	a,(#0x0008 + _playerDoors)
   2240 B7                 6530 	or	a,a
   2241 20 33              6531 	jr	NZ,00102$
                           6532 ;main.c:2078: disable_nmi();
   2243 CDr00s00           6533 	call	_disable_nmi
                           6534 ;main.c:2079: put_char((*pd0_c1x),(*pd0_c1y),105);
   2246 21r59s00           6535 	ld	hl,#0x0003 + _playerDoors
   2249 4E                 6536 	ld	c,(hl)
   224A 2B                 6537 	dec	hl
   224B 46                 6538 	ld	b,(hl)
   224C 3E 69              6539 	ld	a,#0x69
   224E F5                 6540 	push	af
   224F 33                 6541 	inc	sp
   2250 79                 6542 	ld	a,c
   2251 F5                 6543 	push	af
   2252 33                 6544 	inc	sp
   2253 C5                 6545 	push	bc
   2254 33                 6546 	inc	sp
   2255 CDr00s00           6547 	call	_put_char
   2258 F1                 6548 	pop	af
   2259 33                 6549 	inc	sp
                           6550 ;main.c:2080: put_char((*pd0_c2x),(*pd0_c2y),105);
   225A 21r5Bs00           6551 	ld	hl,#0x0005 + _playerDoors
   225D 4E                 6552 	ld	c,(hl)
   225E 2B                 6553 	dec	hl
   225F 46                 6554 	ld	b,(hl)
   2260 3E 69              6555 	ld	a,#0x69
   2262 F5                 6556 	push	af
   2263 33                 6557 	inc	sp
   2264 79                 6558 	ld	a,c
   2265 F5                 6559 	push	af
   2266 33                 6560 	inc	sp
   2267 C5                 6561 	push	bc
   2268 33                 6562 	inc	sp
   2269 CDr00s00           6563 	call	_put_char
   226C F1                 6564 	pop	af
   226D 33                 6565 	inc	sp
                           6566 ;main.c:2081: enable_nmi();
   226E CDr00s00           6567 	call	_enable_nmi
                           6568 ;main.c:2082: (*pd0_affiche) = NOK;
   2271 21r5Es00           6569 	ld	hl,#0x0008 + _playerDoors
   2274 36 01              6570 	ld	(hl),#0x01
   2276                    6571 00102$:
                           6572 ;main.c:2084: if ( ((*pd0_timer) > 0) && ((*pd0_affiche) == NOK) )
   2276 21r56s00           6573 	ld	hl,#_playerDoors
   2279 7E                 6574 	ld	a,(hl)
   227A 23                 6575 	inc	hl
   227B B6                 6576 	or	a,(hl)
   227C 28 3F              6577 	jr	Z,00105$
   227E 3Ar5Es00           6578 	ld	a,(#0x0008 + _playerDoors)
   2281 D6 01              6579 	sub	a,#0x01
   2283 20 38              6580 	jr	NZ,00105$
                           6581 ;main.c:2086: disable_nmi();
   2285 CDr00s00           6582 	call	_disable_nmi
                           6583 ;main.c:2087: put_char((*pd0_c1x),(*pd0_c1y),(*pd0_c1));
   2288 21r5Cs00           6584 	ld	hl,#0x0006 + _playerDoors
   228B 4E                 6585 	ld	c,(hl)
   228C 21r59s00           6586 	ld	hl,#0x0003 + _playerDoors
   228F 46                 6587 	ld	b,(hl)
   2290 2B                 6588 	dec	hl
   2291 5E                 6589 	ld	e,(hl)
   2292 79                 6590 	ld	a,c
   2293 F5                 6591 	push	af
   2294 33                 6592 	inc	sp
   2295 C5                 6593 	push	bc
   2296 33                 6594 	inc	sp
   2297 7B                 6595 	ld	a,e
   2298 F5                 6596 	push	af
   2299 33                 6597 	inc	sp
   229A CDr00s00           6598 	call	_put_char
   229D F1                 6599 	pop	af
   229E 33                 6600 	inc	sp
                           6601 ;main.c:2088: put_char((*pd0_c2x),(*pd0_c2y),(*pd0_c2));
   229F 21r5Ds00           6602 	ld	hl,#0x0007 + _playerDoors
   22A2 4E                 6603 	ld	c,(hl)
   22A3 2B                 6604 	dec	hl
   22A4 2B                 6605 	dec	hl
   22A5 46                 6606 	ld	b,(hl)
   22A6 2B                 6607 	dec	hl
   22A7 5E                 6608 	ld	e,(hl)
   22A8 79                 6609 	ld	a,c
   22A9 F5                 6610 	push	af
   22AA 33                 6611 	inc	sp
   22AB C5                 6612 	push	bc
   22AC 33                 6613 	inc	sp
   22AD 7B                 6614 	ld	a,e
   22AE F5                 6615 	push	af
   22AF 33                 6616 	inc	sp
   22B0 CDr00s00           6617 	call	_put_char
   22B3 F1                 6618 	pop	af
   22B4 33                 6619 	inc	sp
                           6620 ;main.c:2089: enable_nmi();
   22B5 CDr00s00           6621 	call	_enable_nmi
                           6622 ;main.c:2090: (*pd0_affiche) = OK;
   22B8 21r5Es00           6623 	ld	hl,#0x0008 + _playerDoors
   22BB 36 00              6624 	ld	(hl),#0x00
   22BD                    6625 00105$:
                           6626 ;main.c:2092: if ((*pd0_timer)>0) (*pd0_timer)--;
   22BD 21r56s00           6627 	ld	hl,#_playerDoors
   22C0 7E                 6628 	ld	a,(hl)
   22C1 23                 6629 	inc	hl
   22C2 66                 6630 	ld	h,(hl)
   22C3 6F                 6631 	ld	l,a
   22C4 B4                 6632 	or	a,h
   22C5 28 09              6633 	jr	Z,00108$
   22C7 4D                 6634 	ld	c,l
   22C8 44                 6635 	ld	b,h
   22C9 0B                 6636 	dec	bc
   22CA 21r56s00           6637 	ld	hl,#_playerDoors
   22CD 71                 6638 	ld	(hl),c
   22CE 23                 6639 	inc	hl
   22CF 70                 6640 	ld	(hl),b
   22D0                    6641 00108$:
                           6642 ;main.c:2094: if ( ((*pd1_timer) == 0) && ((*pd1_affiche) == OK) ) // On efface la porte
   22D0 21r63s00           6643 	ld	hl,#0x000d + _playerDoors
   22D3 7E                 6644 	ld	a,(hl)
   22D4 23                 6645 	inc	hl
   22D5 B6                 6646 	or	a,(hl)
   22D6 20 3A              6647 	jr	NZ,00110$
   22D8 21r6Bs00           6648 	ld	hl,#0x0008 + 0x000d + _playerDoors
   22DB 7E                 6649 	ld	a,(hl)
   22DC B7                 6650 	or	a,a
   22DD 20 33              6651 	jr	NZ,00110$
                           6652 ;main.c:2096: disable_nmi();
   22DF CDr00s00           6653 	call	_disable_nmi
                           6654 ;main.c:2097: put_char((*pd1_c1x),(*pd1_c1y),105);
   22E2 21r66s00           6655 	ld	hl,#0x0003 + 0x000d + _playerDoors
   22E5 4E                 6656 	ld	c,(hl)
   22E6 2B                 6657 	dec	hl
   22E7 46                 6658 	ld	b,(hl)
   22E8 3E 69              6659 	ld	a,#0x69
   22EA F5                 6660 	push	af
   22EB 33                 6661 	inc	sp
   22EC 79                 6662 	ld	a,c
   22ED F5                 6663 	push	af
   22EE 33                 6664 	inc	sp
   22EF C5                 6665 	push	bc
   22F0 33                 6666 	inc	sp
   22F1 CDr00s00           6667 	call	_put_char
   22F4 F1                 6668 	pop	af
   22F5 33                 6669 	inc	sp
                           6670 ;main.c:2098: put_char((*pd1_c2x),(*pd1_c2y),105);
   22F6 21r68s00           6671 	ld	hl,#0x0005 + 0x000d + _playerDoors
   22F9 4E                 6672 	ld	c,(hl)
   22FA 2B                 6673 	dec	hl
   22FB 46                 6674 	ld	b,(hl)
   22FC 3E 69              6675 	ld	a,#0x69
   22FE F5                 6676 	push	af
   22FF 33                 6677 	inc	sp
   2300 79                 6678 	ld	a,c
   2301 F5                 6679 	push	af
   2302 33                 6680 	inc	sp
   2303 C5                 6681 	push	bc
   2304 33                 6682 	inc	sp
   2305 CDr00s00           6683 	call	_put_char
   2308 F1                 6684 	pop	af
   2309 33                 6685 	inc	sp
                           6686 ;main.c:2099: enable_nmi();
   230A CDr00s00           6687 	call	_enable_nmi
                           6688 ;main.c:2100: (*pd1_affiche) = NOK;
   230D 21r6Bs00           6689 	ld	hl,#0x0008 + 0x000d + _playerDoors
   2310 36 01              6690 	ld	(hl),#0x01
   2312                    6691 00110$:
                           6692 ;main.c:2102: if ( ((*pd1_timer) > 0) && ((*pd1_affiche) == NOK) )
   2312 21r63s00           6693 	ld	hl,#0x000d + _playerDoors
   2315 7E                 6694 	ld	a,(hl)
   2316 23                 6695 	inc	hl
   2317 B6                 6696 	or	a,(hl)
   2318 28 40              6697 	jr	Z,00113$
   231A 21r6Bs00           6698 	ld	hl,#0x0008 + 0x000d + _playerDoors
   231D 7E                 6699 	ld	a, (hl)
   231E D6 01              6700 	sub	a,#0x01
   2320 20 38              6701 	jr	NZ,00113$
                           6702 ;main.c:2104: disable_nmi();
   2322 CDr00s00           6703 	call	_disable_nmi
                           6704 ;main.c:2105: put_char((*pd1_c1x),(*pd1_c1y),(*pd1_c1));
   2325 21r69s00           6705 	ld	hl,#0x0006 + 0x000d + _playerDoors
   2328 4E                 6706 	ld	c,(hl)
   2329 21r66s00           6707 	ld	hl,#0x0003 + 0x000d + _playerDoors
   232C 46                 6708 	ld	b,(hl)
   232D 2B                 6709 	dec	hl
   232E 5E                 6710 	ld	e,(hl)
   232F 79                 6711 	ld	a,c
   2330 F5                 6712 	push	af
   2331 33                 6713 	inc	sp
   2332 C5                 6714 	push	bc
   2333 33                 6715 	inc	sp
   2334 7B                 6716 	ld	a,e
   2335 F5                 6717 	push	af
   2336 33                 6718 	inc	sp
   2337 CDr00s00           6719 	call	_put_char
   233A F1                 6720 	pop	af
   233B 33                 6721 	inc	sp
                           6722 ;main.c:2106: put_char((*pd1_c2x),(*pd1_c2y),(*pd1_c2));
   233C 21r6As00           6723 	ld	hl,#0x0007 + 0x000d + _playerDoors
   233F 4E                 6724 	ld	c,(hl)
   2340 2B                 6725 	dec	hl
   2341 2B                 6726 	dec	hl
   2342 46                 6727 	ld	b,(hl)
   2343 2B                 6728 	dec	hl
   2344 5E                 6729 	ld	e,(hl)
   2345 79                 6730 	ld	a,c
   2346 F5                 6731 	push	af
   2347 33                 6732 	inc	sp
   2348 C5                 6733 	push	bc
   2349 33                 6734 	inc	sp
   234A 7B                 6735 	ld	a,e
   234B F5                 6736 	push	af
   234C 33                 6737 	inc	sp
   234D CDr00s00           6738 	call	_put_char
   2350 F1                 6739 	pop	af
   2351 33                 6740 	inc	sp
                           6741 ;main.c:2107: enable_nmi();
   2352 CDr00s00           6742 	call	_enable_nmi
                           6743 ;main.c:2108: (*pd1_affiche) = OK;
   2355 21r6Bs00           6744 	ld	hl,#0x0008 + 0x000d + _playerDoors
   2358 36 00              6745 	ld	(hl),#0x00
   235A                    6746 00113$:
                           6747 ;main.c:2110: if ((*pd1_timer)>0) (*pd1_timer)--;
   235A 21r63s00           6748 	ld	hl,#0x000d + _playerDoors
   235D 7E                 6749 	ld	a,(hl)
   235E 23                 6750 	inc	hl
   235F 66                 6751 	ld	h,(hl)
   2360 6F                 6752 	ld	l,a
   2361 B4                 6753 	or	a,h
   2362 C8                 6754 	ret	Z
   2363 4D                 6755 	ld	c,l
   2364 44                 6756 	ld	b,h
   2365 0B                 6757 	dec	bc
   2366 21r63s00           6758 	ld	hl,#0x000d + _playerDoors
   2369 71                 6759 	ld	(hl),c
   236A 23                 6760 	inc	hl
   236B 70                 6761 	ld	(hl),b
   236C C9                 6762 	ret
   236D                    6763 _renderDoors_end::
                           6764 ;main.c:2114: void createDoor(void)
                           6765 ;	---------------------------------
                           6766 ; Function createDoor
                           6767 ; ---------------------------------
   236D                    6768 _createDoor_start::
   236D                    6769 _createDoor:
   236D DD E5              6770 	push	ix
   236F DD 21 00 00        6771 	ld	ix,#0
   2373 DD 39              6772 	add	ix,sp
   2375 21 FA FF           6773 	ld	hl,#-6
   2378 39                 6774 	add	hl,sp
   2379 F9                 6775 	ld	sp,hl
                           6776 ;main.c:2118: if (player.lastDoor1Cx!=0)
   237A 21r11s00           6777 	ld	hl,#0x000f + _player
   237D 7E                 6778 	ld	a,(hl)
   237E DD 77 FA           6779 	ld	-6 (ix),a
   2381 AF                 6780 	xor	a,a
   2382 DD B6 FA           6781 	or	a,-6 (ix)
   2385 CAr70s25           6782 	jp	Z,00127$
                           6783 ;main.c:2121: i=NOK; // Il n'y  pas collision
   2388 0E 01              6784 	ld	c,#0x01
                           6785 ;main.c:2124: for (k=0;k<2;k++) // y a t'il dja une porte  cet emplacement ?
   238A 23                 6786 	inc	hl
   238B 7E                 6787 	ld	a,(hl)
   238C DD 77 FB           6788 	ld	-5 (ix),a
   238F DD 36 FE 00        6789 	ld	-2 (ix),#0x00
   2393 1E 00              6790 	ld	e,#0x00
   2395                    6791 00106$:
   2395 DD 7E FE           6792 	ld	a,-2 (ix)
   2398 D6 02              6793 	sub	a,#0x02
   239A 30 4E              6794 	jr	NC,00109$
                           6795 ;main.c:2126: if (playerDoors[k].affiche==OK)
   239C 3Er56              6796 	ld	a,#<(_playerDoors)
   239E 83                 6797 	add	a,e
   239F DD 77 FC           6798 	ld	-4 (ix),a
   23A2 3Es00              6799 	ld	a,#>(_playerDoors)
   23A4 CE 00              6800 	adc	a,#0x00
   23A6 DD 77 FD           6801 	ld	-3 (ix),a
   23A9 DD 7E FC           6802 	ld	a,-4 (ix)
   23AC C6 08              6803 	add	a,#0x08
   23AE 6F                 6804 	ld	l, a
   23AF DD 7E FD           6805 	ld	a, -3 (ix)
   23B2 CE 00              6806 	adc	a, #0x00
   23B4 67                 6807 	ld	h, a
   23B5 7E                 6808 	ld	a,(hl)
   23B6 B7                 6809 	or	a,a
   23B7 20 28              6810 	jr	NZ,00108$
                           6811 ;main.c:2128: if ((playerDoors[k].c1x == player.lastDoor1Cx) && (playerDoors[k].c1y == player.lastDoor1Cy))
   23B9 DD 7E FC           6812 	ld	a,-4 (ix)
   23BC C6 02              6813 	add	a,#0x02
   23BE 6F                 6814 	ld	l, a
   23BF DD 7E FD           6815 	ld	a, -3 (ix)
   23C2 CE 00              6816 	adc	a, #0x00
   23C4 67                 6817 	ld	h, a
   23C5 7E                 6818 	ld	a, (hl)
   23C6 DD 96 FA           6819 	sub	a,-6 (ix)
   23C9 20 16              6820 	jr	NZ,00108$
   23CB DD 7E FC           6821 	ld	a,-4 (ix)
   23CE C6 03              6822 	add	a,#0x03
   23D0 6F                 6823 	ld	l, a
   23D1 DD 7E FD           6824 	ld	a, -3 (ix)
   23D4 CE 00              6825 	adc	a, #0x00
   23D6 67                 6826 	ld	h, a
   23D7 7E                 6827 	ld	a, (hl)
   23D8 DD 96 FB           6828 	sub	a,-5 (ix)
   23DB 20 04              6829 	jr	NZ,00108$
                           6830 ;main.c:2129: {i=OK;break;} // OK = Il y a collision !!
   23DD 0E 00              6831 	ld	c,#0x00
   23DF 18 09              6832 	jr	00109$
   23E1                    6833 00108$:
                           6834 ;main.c:2124: for (k=0;k<2;k++) // y a t'il dja une porte  cet emplacement ?
   23E1 7B                 6835 	ld	a,e
   23E2 C6 0D              6836 	add	a,#0x0D
   23E4 5F                 6837 	ld	e,a
   23E5 DD 34 FE           6838 	inc	-2 (ix)
   23E8 18 AB              6839 	jr	00106$
   23EA                    6840 00109$:
                           6841 ;main.c:2134: if (i==NOK) // Si pas de collision
   23EA 79                 6842 	ld	a,c
   23EB D6 01              6843 	sub	a,#0x01
   23ED C2r70s25           6844 	jp	NZ,00127$
                           6845 ;main.c:2136: k=2;j=0;
   23F0 DD 36 FE 02        6846 	ld	-2 (ix),#0x02
   23F4 1E 00              6847 	ld	e,#0x00
                           6848 ;main.c:2137: for (i=0;i<2;i++)
   23F6 0E 00              6849 	ld	c,#0x00
   23F8 DD 36 FF 00        6850 	ld	-1 (ix),#0x00
   23FC DD 36 FC 00        6851 	ld	-4 (ix),#0x00
   2400                    6852 00113$:
   2400 DD 7E FF           6853 	ld	a,-1 (ix)
   2403 D6 02              6854 	sub	a,#0x02
   2405 30 40              6855 	jr	NC,00116$
                           6856 ;main.c:2139: if ((playerDoors[i].timer==0) && (playerDoors[i].affiche==NOK))  // y a t'il une porte de libre ?
   2407 3Er56              6857 	ld	a,#<(_playerDoors)
   2409 DD 86 FC           6858 	add	a,-4 (ix)
   240C 6F                 6859 	ld	l, a
   240D 3Es00              6860 	ld	a, #>(_playerDoors)
   240F CE 00              6861 	adc	a, #0x00
   2411 67                 6862 	ld	h, a
   2412 7E                 6863 	ld	a,(hl)
   2413 23                 6864 	inc	hl
   2414 B6                 6865 	or	a,(hl)
   2415 20 20              6866 	jr	NZ,00115$
   2417 3Er56              6867 	ld	a,#<(_playerDoors)
   2419 DD 86 FC           6868 	add	a,-4 (ix)
   241C 47                 6869 	ld	b,a
   241D 3Es00              6870 	ld	a,#>(_playerDoors)
   241F CE 00              6871 	adc	a,#0x00
   2421 57                 6872 	ld	d,a
   2422 78                 6873 	ld	a,b
   2423 C6 08              6874 	add	a,#0x08
   2425 47                 6875 	ld	b,a
   2426 7A                 6876 	ld	a,d
   2427 CE 00              6877 	adc	a,#0x00
   2429 67                 6878 	ld	h, a
   242A 68                 6879 	ld	l, b
   242B 7E                 6880 	ld	a, (hl)
   242C D6 01              6881 	sub	a,#0x01
   242E 20 07              6882 	jr	NZ,00115$
                           6883 ;main.c:2141: k=i;
   2430 DD 71 FE           6884 	ld	-2 (ix),c
                           6885 ;main.c:2142: j=1;
   2433 1E 01              6886 	ld	e,#0x01
                           6887 ;main.c:2143: break;
   2435 18 10              6888 	jr	00116$
   2437                    6889 00115$:
                           6890 ;main.c:2137: for (i=0;i<2;i++)
   2437 DD 7E FC           6891 	ld	a,-4 (ix)
   243A C6 0D              6892 	add	a,#0x0D
   243C DD 77 FC           6893 	ld	-4 (ix),a
   243F DD 34 FF           6894 	inc	-1 (ix)
   2442 DD 4E FF           6895 	ld	c,-1 (ix)
   2445 18 B9              6896 	jr	00113$
   2447                    6897 00116$:
                           6898 ;main.c:2147: if (j==1) // Une zone de libre
   2447 7B                 6899 	ld	a,e
   2448 D6 01              6900 	sub	a,#0x01
   244A C2r70s25           6901 	jp	NZ,00127$
                           6902 ;main.c:2150: playerDoors[k].timer = levelParamShowPlayerDoors;
   244D DD 7E FE           6903 	ld	a,-2 (ix)
   2450 5F                 6904 	ld	e,a
   2451 87                 6905 	add	a,a
   2452 83                 6906 	add	a,e
   2453 87                 6907 	add	a,a
   2454 87                 6908 	add	a,a
   2455 83                 6909 	add	a,e
   2456 4F                 6910 	ld	c, a
   2457 C6r56              6911 	add	a,#<(_playerDoors)
   2459 6F                 6912 	ld	l, a
   245A 3Es00              6913 	ld	a, #>(_playerDoors)
   245C CE 00              6914 	adc	a, #0x00
   245E 67                 6915 	ld	h, a
   245F FD 21r31s01        6916 	ld	iy,#_levelParamShowPlayerDoors
   2463 FD 7E 00           6917 	ld	a,0 (iy)
   2466 77                 6918 	ld	(hl),a
   2467 23                 6919 	inc	hl
   2468 FD 7E 01           6920 	ld	a,1 (iy)
   246B 77                 6921 	ld	(hl),a
                           6922 ;main.c:2151: playerDoors[k].c1x = player.lastDoor1Cx;
   246C 3Er56              6923 	ld	a,#<(_playerDoors)
   246E 81                 6924 	add	a,c
   246F 47                 6925 	ld	b,a
   2470 3Es00              6926 	ld	a,#>(_playerDoors)
   2472 CE 00              6927 	adc	a,#0x00
   2474 57                 6928 	ld	d,a
   2475 78                 6929 	ld	a,b
   2476 C6 02              6930 	add	a,#0x02
   2478 5F                 6931 	ld	e,a
   2479 7A                 6932 	ld	a,d
   247A CE 00              6933 	adc	a,#0x00
   247C 67                 6934 	ld	h, a
   247D 6B                 6935 	ld	l, e
   247E DD 7E FA           6936 	ld	a,-6 (ix)
   2481 77                 6937 	ld	(hl),a
                           6938 ;main.c:2152: playerDoors[k].c1y = player.lastDoor1Cy;
   2482 78                 6939 	ld	a,b
   2483 C6 03              6940 	add	a,#0x03
   2485 4F                 6941 	ld	c,a
   2486 7A                 6942 	ld	a,d
   2487 CE 00              6943 	adc	a,#0x00
   2489 67                 6944 	ld	h, a
   248A 69                 6945 	ld	l, c
   248B DD 7E FB           6946 	ld	a,-5 (ix)
   248E 77                 6947 	ld	(hl),a
                           6948 ;main.c:2153: playerDoors[k].c2x = player.lastDoor2Cx;
   248F 78                 6949 	ld	a,b
   2490 C6 04              6950 	add	a,#0x04
   2492 4F                 6951 	ld	c,a
   2493 7A                 6952 	ld	a,d
   2494 CE 00              6953 	adc	a,#0x00
   2496 5F                 6954 	ld	e,a
   2497 3Ar13s00           6955 	ld	a,(#0x0011 + _player)
   249A DD 77 FB           6956 	ld	-5 (ix),a
   249D 69                 6957 	ld	l,c
   249E 63                 6958 	ld	h,e
   249F DD 7E FB           6959 	ld	a,-5 (ix)
   24A2 77                 6960 	ld	(hl),a
                           6961 ;main.c:2154: playerDoors[k].c2y = player.lastDoor2Cy;
   24A3 78                 6962 	ld	a,b
   24A4 C6 05              6963 	add	a,#0x05
   24A6 5F                 6964 	ld	e,a
   24A7 7A                 6965 	ld	a,d
   24A8 CE 00              6966 	adc	a,#0x00
   24AA 4F                 6967 	ld	c,a
   24AB 3Ar14s00           6968 	ld	a,(#0x0012 + _player)
   24AE 6B                 6969 	ld	l,e
   24AF 61                 6970 	ld	h,c
   24B0 77                 6971 	ld	(hl),a
                           6972 ;main.c:2155: playerDoors[k].doorGlobalPxStart = player.lastDoorGlobalPxStart;
   24B1 78                 6973 	ld	a,b
   24B2 C6 09              6974 	add	a,#0x09
   24B4 4F                 6975 	ld	c,a
   24B5 7A                 6976 	ld	a,d
   24B6 CE 00              6977 	adc	a,#0x00
   24B8 5F                 6978 	ld	e,a
   24B9 3Ar15s00           6979 	ld	a,(#0x0013 + _player)
   24BC 69                 6980 	ld	l,c
   24BD 63                 6981 	ld	h,e
   24BE 77                 6982 	ld	(hl),a
                           6983 ;main.c:2156: playerDoors[k].doorGlobalPyStart = player.lastDoorGlobalPyStart;
   24BF 78                 6984 	ld	a,b
   24C0 C6 0A              6985 	add	a,#0x0A
   24C2 4F                 6986 	ld	c,a
   24C3 7A                 6987 	ld	a,d
   24C4 CE 00              6988 	adc	a,#0x00
   24C6 5F                 6989 	ld	e,a
   24C7 3Ar16s00           6990 	ld	a,(#0x0014 + _player)
   24CA 69                 6991 	ld	l,c
   24CB 63                 6992 	ld	h,e
   24CC 77                 6993 	ld	(hl),a
                           6994 ;main.c:2157: playerDoors[k].doorGlobalHauteur = player.lastDoorGlobalHauteur;
   24CD 78                 6995 	ld	a,b
   24CE C6 0B              6996 	add	a,#0x0B
   24D0 4F                 6997 	ld	c,a
   24D1 7A                 6998 	ld	a,d
   24D2 CE 00              6999 	adc	a,#0x00
   24D4 5F                 7000 	ld	e,a
   24D5 3Ar17s00           7001 	ld	a,(#0x0015 + _player)
   24D8 69                 7002 	ld	l,c
   24D9 63                 7003 	ld	h,e
   24DA 77                 7004 	ld	(hl),a
                           7005 ;main.c:2158: playerDoors[k].doorGlobalLargeur = player.lastDoorGlobalLargeur;
   24DB 78                 7006 	ld	a,b
   24DC C6 0C              7007 	add	a,#0x0C
   24DE 4F                 7008 	ld	c,a
   24DF 7A                 7009 	ld	a,d
   24E0 CE 00              7010 	adc	a,#0x00
   24E2 5F                 7011 	ld	e,a
   24E3 3Ar18s00           7012 	ld	a,(#0x0016 + _player)
   24E6 69                 7013 	ld	l,c
   24E7 63                 7014 	ld	h,e
   24E8 77                 7015 	ld	(hl),a
                           7016 ;main.c:2160: playerDoors[k].affiche = NOK;
   24E9 78                 7017 	ld	a,b
   24EA C6 08              7018 	add	a,#0x08
   24EC 4F                 7019 	ld	c,a
   24ED 7A                 7020 	ld	a,d
   24EE CE 00              7021 	adc	a,#0x00
   24F0 67                 7022 	ld	h, a
   24F1 69                 7023 	ld	l, c
   24F2 36 01              7024 	ld	(hl),#0x01
                           7025 ;main.c:2162: if ((player.lastDoor1Cx==player.lastDoor2Cx-1) || (player.lastDoor1Cx==player.lastDoor2Cx+1)) // Horizontal
   24F4 DD 6E FB           7026 	ld	l,-5 (ix)
   24F7 26 00              7027 	ld	h,#0x00
   24F9 7D                 7028 	ld	a,l
   24FA C6 FF              7029 	add	a,#0xFF
   24FC 4F                 7030 	ld	c,a
   24FD 7C                 7031 	ld	a,h
   24FE CE FF              7032 	adc	a,#0xFF
   2500 5F                 7033 	ld	e,a
   2501 DD 7E FA           7034 	ld	a,-6 (ix)
   2504 DD 77 FC           7035 	ld	-4 (ix),a
   2507 DD 36 FD 00        7036 	ld	-3 (ix),#0x00
   250B DD 7E FC           7037 	ld	a,-4 (ix)
   250E 91                 7038 	sub	a,c
   250F 20 06              7039 	jr	NZ,00152$
   2511 DD 7E FD           7040 	ld	a,-3 (ix)
   2514 93                 7041 	sub	a,e
   2515 28 14              7042 	jr	Z,00117$
   2517                    7043 00152$:
   2517 7D                 7044 	ld	a,l
   2518 C6 01              7045 	add	a,#0x01
   251A 4F                 7046 	ld	c,a
   251B 7C                 7047 	ld	a,h
   251C CE 00              7048 	adc	a,#0x00
   251E 5F                 7049 	ld	e,a
   251F DD 7E FC           7050 	ld	a,-4 (ix)
   2522 91                 7051 	sub	a,c
   2523 20 27              7052 	jr	NZ,00118$
   2525 DD 7E FD           7053 	ld	a,-3 (ix)
   2528 93                 7054 	sub	a,e
   2529 20 21              7055 	jr	NZ,00118$
   252B                    7056 00117$:
                           7057 ;main.c:2164: playerDoors[k].c1=playerDoors[k].c2=107;
   252B 78                 7058 	ld	a,b
   252C C6 06              7059 	add	a,#0x06
   252E DD 77 FC           7060 	ld	-4 (ix),a
   2531 7A                 7061 	ld	a,d
   2532 CE 00              7062 	adc	a,#0x00
   2534 DD 77 FD           7063 	ld	-3 (ix),a
   2537 78                 7064 	ld	a,b
   2538 C6 07              7065 	add	a,#0x07
   253A 4F                 7066 	ld	c,a
   253B 7A                 7067 	ld	a,d
   253C CE 00              7068 	adc	a,#0x00
   253E 67                 7069 	ld	h, a
   253F 69                 7070 	ld	l, c
   2540 36 6B              7071 	ld	(hl),#0x6B
   2542 DD 6E FC           7072 	ld	l,-4 (ix)
   2545 DD 66 FD           7073 	ld	h,-3 (ix)
   2548 36 6B              7074 	ld	(hl),#0x6B
   254A 18 17              7075 	jr	00119$
   254C                    7076 00118$:
                           7077 ;main.c:2168: playerDoors[k].c1=playerDoors[k].c2=106;
   254C 78                 7078 	ld	a,b
   254D C6 06              7079 	add	a,#0x06
   254F 4F                 7080 	ld	c,a
   2550 7A                 7081 	ld	a,d
   2551 CE 00              7082 	adc	a,#0x00
   2553 5F                 7083 	ld	e,a
   2554 78                 7084 	ld	a,b
   2555 C6 07              7085 	add	a,#0x07
   2557 47                 7086 	ld	b,a
   2558 7A                 7087 	ld	a,d
   2559 CE 00              7088 	adc	a,#0x00
   255B 67                 7089 	ld	h, a
   255C 68                 7090 	ld	l, b
   255D 36 6A              7091 	ld	(hl),#0x6A
   255F 69                 7092 	ld	l,c
   2560 63                 7093 	ld	h,e
   2561 36 6A              7094 	ld	(hl),#0x6A
   2563                    7095 00119$:
                           7096 ;main.c:2171: player.lastDoor1Cx = 0;
   2563 21r11s00           7097 	ld	hl,#0x000f + _player
   2566 36 00              7098 	ld	(hl),#0x00
                           7099 ;main.c:2173: startsfxPrio(sfx_porte);
   2568 21r00s00           7100 	ld	hl,#_sfx_porte
   256B E5                 7101 	push	hl
   256C CDrB1s02           7102 	call	_startsfxPrio
   256F F1                 7103 	pop	af
   2570                    7104 00127$:
   2570 DD F9              7105 	ld	sp,ix
   2572 DD E1              7106 	pop	ix
   2574 C9                 7107 	ret
   2575                    7108 _createDoor_end::
                           7109 ;main.c:2180: void openDoors()
                           7110 ;	---------------------------------
                           7111 ; Function openDoors
                           7112 ; ---------------------------------
   2575                    7113 _openDoors_start::
   2575                    7114 _openDoors:
                           7115 ;main.c:2182: disable_nmi();
   2575 CDr00s00           7116 	call	_disable_nmi
                           7117 ;main.c:2183: put_frame(&horizontalSpace,9,0,2,1);
   2578 21 02 01           7118 	ld	hl,#0x0102
   257B E5                 7119 	push	hl
   257C 21 09 00           7120 	ld	hl,#0x0009
   257F E5                 7121 	push	hl
   2580 21r66s00           7122 	ld	hl,#_horizontalSpace
   2583 E5                 7123 	push	hl
   2584 CDr00s00           7124 	call	_put_frame
   2587 F1                 7125 	pop	af
   2588 F1                 7126 	pop	af
                           7127 ;main.c:2184: put_frame(&horizontalSpace,21,23,2,1);
   2589 21 02 01           7128 	ld	hl,#0x0102
   258C E3                 7129 	ex	(sp),hl
   258D 21 15 17           7130 	ld	hl,#0x1715
   2590 E5                 7131 	push	hl
   2591 21r66s00           7132 	ld	hl,#_horizontalSpace
   2594 E5                 7133 	push	hl
   2595 CDr00s00           7134 	call	_put_frame
   2598 F1                 7135 	pop	af
   2599 F1                 7136 	pop	af
   259A F1                 7137 	pop	af
                           7138 ;main.c:2185: enable_nmi();
   259B CDr00s00           7139 	call	_enable_nmi
                           7140 ;main.c:2186: player.doorOpen = OK;
   259E 21r08s00           7141 	ld	hl,#0x0006 + _player
   25A1 36 00              7142 	ld	(hl),#0x00
   25A3 C9                 7143 	ret
   25A4                    7144 _openDoors_end::
                           7145 ;main.c:2189: void initLevel(byte lvl)
                           7146 ;	---------------------------------
                           7147 ; Function initLevel
                           7148 ; ---------------------------------
   25A4                    7149 _initLevel_start::
   25A4                    7150 _initLevel:
   25A4 DD E5              7151 	push	ix
   25A6 DD 21 00 00        7152 	ld	ix,#0
   25AA DD 39              7153 	add	ix,sp
                           7154 ;main.c:2191: if (lvl%2==0)
   25AC DD 7E 04           7155 	ld	a,4 (ix)
   25AF E6 01              7156 	and	a,#0x01
   25B1 20 4A              7157 	jr	NZ,00102$
                           7158 ;main.c:2193: levelParamScatterModeTime = 100;
   25B3 FD 21r20s01        7159 	ld	iy,#_levelParamScatterModeTime
   25B7 FD 36 00 64        7160 	ld	0 (iy),#0x64
   25BB FD 36 01 00        7161 	ld	1 (iy),#0x00
                           7162 ;main.c:2194: levelParamCopFreezeBonus = 200;
   25BF FD 21r22s01        7163 	ld	iy,#_levelParamCopFreezeBonus
   25C3 FD 36 00 C8        7164 	ld	0 (iy),#0xC8
   25C7 FD 36 01 00        7165 	ld	1 (iy),#0x00
                           7166 ;main.c:2195: levelParamCop0FreezeStart = 100;
   25CB FD 21r27s01        7167 	ld	iy,#_levelParamCop0FreezeStart
   25CF FD 36 00 64        7168 	ld	0 (iy),#0x64
   25D3 FD 36 01 00        7169 	ld	1 (iy),#0x00
                           7170 ;main.c:2196: levelParamCop1FreezeStart = 200;
   25D7 FD 21r29s01        7171 	ld	iy,#_levelParamCop1FreezeStart
   25DB FD 36 00 C8        7172 	ld	0 (iy),#0xC8
   25DF FD 36 01 00        7173 	ld	1 (iy),#0x00
                           7174 ;main.c:2197: levelParamCop2FreezeStart = 300;
   25E3 FD 21r2Bs01        7175 	ld	iy,#_levelParamCop2FreezeStart
   25E7 FD 36 00 2C        7176 	ld	0 (iy),#0x2C
   25EB FD 36 01 01        7177 	ld	1 (iy),#0x01
                           7178 ;main.c:2198: levelParamCop3FreezeStart = 300;	
   25EF FD 21r2Ds01        7179 	ld	iy,#_levelParamCop3FreezeStart
   25F3 FD 36 00 2C        7180 	ld	0 (iy),#0x2C
   25F7 FD 36 01 01        7181 	ld	1 (iy),#0x01
   25FB 18 48              7182 	jr	00103$
   25FD                    7183 00102$:
                           7184 ;main.c:2202: levelParamScatterModeTime = 300;
   25FD FD 21r20s01        7185 	ld	iy,#_levelParamScatterModeTime
   2601 FD 36 00 2C        7186 	ld	0 (iy),#0x2C
   2605 FD 36 01 01        7187 	ld	1 (iy),#0x01
                           7188 ;main.c:2203: levelParamCopFreezeBonus = 200;
   2609 FD 21r22s01        7189 	ld	iy,#_levelParamCopFreezeBonus
   260D FD 36 00 C8        7190 	ld	0 (iy),#0xC8
   2611 FD 36 01 00        7191 	ld	1 (iy),#0x00
                           7192 ;main.c:2204: levelParamCop0FreezeStart = 100;
   2615 FD 21r27s01        7193 	ld	iy,#_levelParamCop0FreezeStart
   2619 FD 36 00 64        7194 	ld	0 (iy),#0x64
   261D FD 36 01 00        7195 	ld	1 (iy),#0x00
                           7196 ;main.c:2205: levelParamCop1FreezeStart = 200;
   2621 FD 21r29s01        7197 	ld	iy,#_levelParamCop1FreezeStart
   2625 FD 36 00 C8        7198 	ld	0 (iy),#0xC8
   2629 FD 36 01 00        7199 	ld	1 (iy),#0x00
                           7200 ;main.c:2206: levelParamCop2FreezeStart = 300;
   262D FD 21r2Bs01        7201 	ld	iy,#_levelParamCop2FreezeStart
   2631 FD 36 00 2C        7202 	ld	0 (iy),#0x2C
   2635 FD 36 01 01        7203 	ld	1 (iy),#0x01
                           7204 ;main.c:2207: levelParamCop3FreezeStart = 300;					
   2639 FD 21r2Ds01        7205 	ld	iy,#_levelParamCop3FreezeStart
   263D FD 36 00 2C        7206 	ld	0 (iy),#0x2C
   2641 FD 36 01 01        7207 	ld	1 (iy),#0x01
   2645                    7208 00103$:
                           7209 ;main.c:2210: if (lvl==1)
   2645 DD 7E 04           7210 	ld	a,4 (ix)
   2648 D6 01              7211 	sub	a,#0x01
   264A 20 17              7212 	jr	NZ,00176$
                           7213 ;main.c:2212: levelParamCop0Speed = 7;
   264C 21r1Cs01           7214 	ld	hl,#_levelParamCop0Speed + 0
   264F 36 07              7215 	ld	(hl), #0x07
                           7216 ;main.c:2213: levelParamCop1Speed = 7;
   2651 21r1Ds01           7217 	ld	hl,#_levelParamCop1Speed + 0
   2654 36 07              7218 	ld	(hl), #0x07
                           7219 ;main.c:2214: levelParamCop2Speed = 7;
   2656 21r1Es01           7220 	ld	hl,#_levelParamCop2Speed + 0
   2659 36 07              7221 	ld	(hl), #0x07
                           7222 ;main.c:2215: levelParamCop3Speed = 7;
   265B 21r1Fs01           7223 	ld	hl,#_levelParamCop3Speed + 0
   265E 36 07              7224 	ld	(hl), #0x07
   2660 C3rDFs2A           7225 	jp	00177$
   2663                    7226 00176$:
                           7227 ;main.c:2217: if (lvl==2)
   2663 DD 7E 04           7228 	ld	a,4 (ix)
   2666 D6 02              7229 	sub	a,#0x02
   2668 20 17              7230 	jr	NZ,00173$
                           7231 ;main.c:2219: levelParamCop0Speed = 7;
   266A 21r1Cs01           7232 	ld	hl,#_levelParamCop0Speed + 0
   266D 36 07              7233 	ld	(hl), #0x07
                           7234 ;main.c:2220: levelParamCop1Speed = 7;
   266F 21r1Ds01           7235 	ld	hl,#_levelParamCop1Speed + 0
   2672 36 07              7236 	ld	(hl), #0x07
                           7237 ;main.c:2221: levelParamCop2Speed = 7;
   2674 21r1Es01           7238 	ld	hl,#_levelParamCop2Speed + 0
   2677 36 07              7239 	ld	(hl), #0x07
                           7240 ;main.c:2222: levelParamCop3Speed = 7;
   2679 21r1Fs01           7241 	ld	hl,#_levelParamCop3Speed + 0
   267C 36 07              7242 	ld	(hl), #0x07
   267E C3rDFs2A           7243 	jp	00177$
   2681                    7244 00173$:
                           7245 ;main.c:2225: if (lvl==3)
   2681 DD 7E 04           7246 	ld	a,4 (ix)
   2684 D6 03              7247 	sub	a,#0x03
   2686 20 17              7248 	jr	NZ,00170$
                           7249 ;main.c:2228: levelParamCop0Speed = 7;
   2688 21r1Cs01           7250 	ld	hl,#_levelParamCop0Speed + 0
   268B 36 07              7251 	ld	(hl), #0x07
                           7252 ;main.c:2229: levelParamCop1Speed = 7;
   268D 21r1Ds01           7253 	ld	hl,#_levelParamCop1Speed + 0
   2690 36 07              7254 	ld	(hl), #0x07
                           7255 ;main.c:2230: levelParamCop2Speed = 7;
   2692 21r1Es01           7256 	ld	hl,#_levelParamCop2Speed + 0
   2695 36 07              7257 	ld	(hl), #0x07
                           7258 ;main.c:2231: levelParamCop3Speed = 8;
   2697 21r1Fs01           7259 	ld	hl,#_levelParamCop3Speed + 0
   269A 36 08              7260 	ld	(hl), #0x08
   269C C3rDFs2A           7261 	jp	00177$
   269F                    7262 00170$:
                           7263 ;main.c:2233: if (lvl==4)
   269F DD 7E 04           7264 	ld	a,4 (ix)
   26A2 D6 04              7265 	sub	a,#0x04
   26A4 20 17              7266 	jr	NZ,00167$
                           7267 ;main.c:2236: levelParamCop0Speed = 7;
   26A6 21r1Cs01           7268 	ld	hl,#_levelParamCop0Speed + 0
   26A9 36 07              7269 	ld	(hl), #0x07
                           7270 ;main.c:2237: levelParamCop1Speed = 7;
   26AB 21r1Ds01           7271 	ld	hl,#_levelParamCop1Speed + 0
   26AE 36 07              7272 	ld	(hl), #0x07
                           7273 ;main.c:2238: levelParamCop2Speed = 7;
   26B0 21r1Es01           7274 	ld	hl,#_levelParamCop2Speed + 0
   26B3 36 07              7275 	ld	(hl), #0x07
                           7276 ;main.c:2239: levelParamCop3Speed = 8;
   26B5 21r1Fs01           7277 	ld	hl,#_levelParamCop3Speed + 0
   26B8 36 08              7278 	ld	(hl), #0x08
   26BA C3rDFs2A           7279 	jp	00177$
   26BD                    7280 00167$:
                           7281 ;main.c:2241: if (lvl==5)
   26BD DD 7E 04           7282 	ld	a,4 (ix)
   26C0 D6 05              7283 	sub	a,#0x05
   26C2 20 17              7284 	jr	NZ,00164$
                           7285 ;main.c:2243: levelParamCop0Speed = 7;
   26C4 21r1Cs01           7286 	ld	hl,#_levelParamCop0Speed + 0
   26C7 36 07              7287 	ld	(hl), #0x07
                           7288 ;main.c:2244: levelParamCop1Speed = 7;
   26C9 21r1Ds01           7289 	ld	hl,#_levelParamCop1Speed + 0
   26CC 36 07              7290 	ld	(hl), #0x07
                           7291 ;main.c:2245: levelParamCop2Speed = 8;
   26CE 21r1Es01           7292 	ld	hl,#_levelParamCop2Speed + 0
   26D1 36 08              7293 	ld	(hl), #0x08
                           7294 ;main.c:2246: levelParamCop3Speed = 8;
   26D3 21r1Fs01           7295 	ld	hl,#_levelParamCop3Speed + 0
   26D6 36 08              7296 	ld	(hl), #0x08
   26D8 C3rDFs2A           7297 	jp	00177$
   26DB                    7298 00164$:
                           7299 ;main.c:2248: if (lvl==6)
   26DB DD 7E 04           7300 	ld	a,4 (ix)
   26DE D6 06              7301 	sub	a,#0x06
   26E0 20 17              7302 	jr	NZ,00161$
                           7303 ;main.c:2250: levelParamCop0Speed = 7;
   26E2 21r1Cs01           7304 	ld	hl,#_levelParamCop0Speed + 0
   26E5 36 07              7305 	ld	(hl), #0x07
                           7306 ;main.c:2251: levelParamCop1Speed = 7;
   26E7 21r1Ds01           7307 	ld	hl,#_levelParamCop1Speed + 0
   26EA 36 07              7308 	ld	(hl), #0x07
                           7309 ;main.c:2252: levelParamCop2Speed = 8;
   26EC 21r1Es01           7310 	ld	hl,#_levelParamCop2Speed + 0
   26EF 36 08              7311 	ld	(hl), #0x08
                           7312 ;main.c:2253: levelParamCop3Speed = 8;
   26F1 21r1Fs01           7313 	ld	hl,#_levelParamCop3Speed + 0
   26F4 36 08              7314 	ld	(hl), #0x08
   26F6 C3rDFs2A           7315 	jp	00177$
   26F9                    7316 00161$:
                           7317 ;main.c:2255: if (lvl==7)
   26F9 DD 7E 04           7318 	ld	a,4 (ix)
   26FC D6 07              7319 	sub	a,#0x07
   26FE 20 17              7320 	jr	NZ,00158$
                           7321 ;main.c:2257: levelParamCop0Speed = 7;
   2700 21r1Cs01           7322 	ld	hl,#_levelParamCop0Speed + 0
   2703 36 07              7323 	ld	(hl), #0x07
                           7324 ;main.c:2258: levelParamCop1Speed = 8;
   2705 21r1Ds01           7325 	ld	hl,#_levelParamCop1Speed + 0
   2708 36 08              7326 	ld	(hl), #0x08
                           7327 ;main.c:2259: levelParamCop2Speed = 8;
   270A 21r1Es01           7328 	ld	hl,#_levelParamCop2Speed + 0
   270D 36 08              7329 	ld	(hl), #0x08
                           7330 ;main.c:2260: levelParamCop3Speed = 8;
   270F 21r1Fs01           7331 	ld	hl,#_levelParamCop3Speed + 0
   2712 36 08              7332 	ld	(hl), #0x08
   2714 C3rDFs2A           7333 	jp	00177$
   2717                    7334 00158$:
                           7335 ;main.c:2262: if (lvl==8)
   2717 DD 7E 04           7336 	ld	a,4 (ix)
   271A D6 08              7337 	sub	a,#0x08
   271C 20 17              7338 	jr	NZ,00155$
                           7339 ;main.c:2264: levelParamCop0Speed = 7;
   271E 21r1Cs01           7340 	ld	hl,#_levelParamCop0Speed + 0
   2721 36 07              7341 	ld	(hl), #0x07
                           7342 ;main.c:2265: levelParamCop1Speed = 8;
   2723 21r1Ds01           7343 	ld	hl,#_levelParamCop1Speed + 0
   2726 36 08              7344 	ld	(hl), #0x08
                           7345 ;main.c:2266: levelParamCop2Speed = 8;
   2728 21r1Es01           7346 	ld	hl,#_levelParamCop2Speed + 0
   272B 36 08              7347 	ld	(hl), #0x08
                           7348 ;main.c:2267: levelParamCop3Speed = 8;
   272D 21r1Fs01           7349 	ld	hl,#_levelParamCop3Speed + 0
   2730 36 08              7350 	ld	(hl), #0x08
   2732 C3rDFs2A           7351 	jp	00177$
   2735                    7352 00155$:
                           7353 ;main.c:2269: if (lvl==9)
   2735 DD 7E 04           7354 	ld	a,4 (ix)
   2738 D6 09              7355 	sub	a,#0x09
   273A 20 17              7356 	jr	NZ,00152$
                           7357 ;main.c:2271: levelParamCop0Speed = 8;
   273C 21r1Cs01           7358 	ld	hl,#_levelParamCop0Speed + 0
   273F 36 08              7359 	ld	(hl), #0x08
                           7360 ;main.c:2272: levelParamCop1Speed = 8;
   2741 21r1Ds01           7361 	ld	hl,#_levelParamCop1Speed + 0
   2744 36 08              7362 	ld	(hl), #0x08
                           7363 ;main.c:2273: levelParamCop2Speed = 8;
   2746 21r1Es01           7364 	ld	hl,#_levelParamCop2Speed + 0
   2749 36 08              7365 	ld	(hl), #0x08
                           7366 ;main.c:2274: levelParamCop3Speed = 8;
   274B 21r1Fs01           7367 	ld	hl,#_levelParamCop3Speed + 0
   274E 36 08              7368 	ld	(hl), #0x08
   2750 C3rDFs2A           7369 	jp	00177$
   2753                    7370 00152$:
                           7371 ;main.c:2276: if (lvl==10)
   2753 DD 7E 04           7372 	ld	a,4 (ix)
   2756 D6 0A              7373 	sub	a,#0x0A
   2758 20 17              7374 	jr	NZ,00149$
                           7375 ;main.c:2278: levelParamCop0Speed = 8;
   275A 21r1Cs01           7376 	ld	hl,#_levelParamCop0Speed + 0
   275D 36 08              7377 	ld	(hl), #0x08
                           7378 ;main.c:2279: levelParamCop1Speed = 8;
   275F 21r1Ds01           7379 	ld	hl,#_levelParamCop1Speed + 0
   2762 36 08              7380 	ld	(hl), #0x08
                           7381 ;main.c:2280: levelParamCop2Speed = 8;
   2764 21r1Es01           7382 	ld	hl,#_levelParamCop2Speed + 0
   2767 36 08              7383 	ld	(hl), #0x08
                           7384 ;main.c:2281: levelParamCop3Speed = 8;
   2769 21r1Fs01           7385 	ld	hl,#_levelParamCop3Speed + 0
   276C 36 08              7386 	ld	(hl), #0x08
   276E C3rDFs2A           7387 	jp	00177$
   2771                    7388 00149$:
                           7389 ;main.c:2283: if (lvl==11)
   2771 DD 7E 04           7390 	ld	a,4 (ix)
   2774 D6 0B              7391 	sub	a,#0x0B
   2776 20 17              7392 	jr	NZ,00146$
                           7393 ;main.c:2285: levelParamCop0Speed = 8;
   2778 21r1Cs01           7394 	ld	hl,#_levelParamCop0Speed + 0
   277B 36 08              7395 	ld	(hl), #0x08
                           7396 ;main.c:2286: levelParamCop1Speed = 8;
   277D 21r1Ds01           7397 	ld	hl,#_levelParamCop1Speed + 0
   2780 36 08              7398 	ld	(hl), #0x08
                           7399 ;main.c:2287: levelParamCop2Speed = 8;
   2782 21r1Es01           7400 	ld	hl,#_levelParamCop2Speed + 0
   2785 36 08              7401 	ld	(hl), #0x08
                           7402 ;main.c:2288: levelParamCop3Speed = 9;
   2787 21r1Fs01           7403 	ld	hl,#_levelParamCop3Speed + 0
   278A 36 09              7404 	ld	(hl), #0x09
   278C C3rDFs2A           7405 	jp	00177$
   278F                    7406 00146$:
                           7407 ;main.c:2290: if (lvl==12)
   278F DD 7E 04           7408 	ld	a,4 (ix)
   2792 D6 0C              7409 	sub	a,#0x0C
   2794 20 17              7410 	jr	NZ,00143$
                           7411 ;main.c:2292: levelParamCop0Speed = 8;
   2796 21r1Cs01           7412 	ld	hl,#_levelParamCop0Speed + 0
   2799 36 08              7413 	ld	(hl), #0x08
                           7414 ;main.c:2293: levelParamCop1Speed = 8;
   279B 21r1Ds01           7415 	ld	hl,#_levelParamCop1Speed + 0
   279E 36 08              7416 	ld	(hl), #0x08
                           7417 ;main.c:2294: levelParamCop2Speed = 8;
   27A0 21r1Es01           7418 	ld	hl,#_levelParamCop2Speed + 0
   27A3 36 08              7419 	ld	(hl), #0x08
                           7420 ;main.c:2295: levelParamCop3Speed = 9;
   27A5 21r1Fs01           7421 	ld	hl,#_levelParamCop3Speed + 0
   27A8 36 09              7422 	ld	(hl), #0x09
   27AA C3rDFs2A           7423 	jp	00177$
   27AD                    7424 00143$:
                           7425 ;main.c:2297: if (lvl==13)
   27AD DD 7E 04           7426 	ld	a,4 (ix)
   27B0 D6 0D              7427 	sub	a,#0x0D
   27B2 20 17              7428 	jr	NZ,00140$
                           7429 ;main.c:2299: levelParamCop0Speed = 8;
   27B4 21r1Cs01           7430 	ld	hl,#_levelParamCop0Speed + 0
   27B7 36 08              7431 	ld	(hl), #0x08
                           7432 ;main.c:2300: levelParamCop1Speed = 8;
   27B9 21r1Ds01           7433 	ld	hl,#_levelParamCop1Speed + 0
   27BC 36 08              7434 	ld	(hl), #0x08
                           7435 ;main.c:2301: levelParamCop2Speed = 9;
   27BE 21r1Es01           7436 	ld	hl,#_levelParamCop2Speed + 0
   27C1 36 09              7437 	ld	(hl), #0x09
                           7438 ;main.c:2302: levelParamCop3Speed = 9;
   27C3 21r1Fs01           7439 	ld	hl,#_levelParamCop3Speed + 0
   27C6 36 09              7440 	ld	(hl), #0x09
   27C8 C3rDFs2A           7441 	jp	00177$
   27CB                    7442 00140$:
                           7443 ;main.c:2304: if (lvl==14)
   27CB DD 7E 04           7444 	ld	a,4 (ix)
   27CE D6 0E              7445 	sub	a,#0x0E
   27D0 20 17              7446 	jr	NZ,00137$
                           7447 ;main.c:2306: levelParamCop0Speed = 8;
   27D2 21r1Cs01           7448 	ld	hl,#_levelParamCop0Speed + 0
   27D5 36 08              7449 	ld	(hl), #0x08
                           7450 ;main.c:2307: levelParamCop1Speed = 8;
   27D7 21r1Ds01           7451 	ld	hl,#_levelParamCop1Speed + 0
   27DA 36 08              7452 	ld	(hl), #0x08
                           7453 ;main.c:2308: levelParamCop2Speed = 9;
   27DC 21r1Es01           7454 	ld	hl,#_levelParamCop2Speed + 0
   27DF 36 09              7455 	ld	(hl), #0x09
                           7456 ;main.c:2309: levelParamCop3Speed = 9;
   27E1 21r1Fs01           7457 	ld	hl,#_levelParamCop3Speed + 0
   27E4 36 09              7458 	ld	(hl), #0x09
   27E6 C3rDFs2A           7459 	jp	00177$
   27E9                    7460 00137$:
                           7461 ;main.c:2311: if (lvl==15)
   27E9 DD 7E 04           7462 	ld	a,4 (ix)
   27EC D6 0F              7463 	sub	a,#0x0F
   27EE 20 17              7464 	jr	NZ,00134$
                           7465 ;main.c:2313: levelParamCop0Speed = 8;
   27F0 21r1Cs01           7466 	ld	hl,#_levelParamCop0Speed + 0
   27F3 36 08              7467 	ld	(hl), #0x08
                           7468 ;main.c:2314: levelParamCop1Speed = 9;
   27F5 21r1Ds01           7469 	ld	hl,#_levelParamCop1Speed + 0
   27F8 36 09              7470 	ld	(hl), #0x09
                           7471 ;main.c:2315: levelParamCop2Speed = 9;
   27FA 21r1Es01           7472 	ld	hl,#_levelParamCop2Speed + 0
   27FD 36 09              7473 	ld	(hl), #0x09
                           7474 ;main.c:2316: levelParamCop3Speed = 9;
   27FF 21r1Fs01           7475 	ld	hl,#_levelParamCop3Speed + 0
   2802 36 09              7476 	ld	(hl), #0x09
   2804 C3rDFs2A           7477 	jp	00177$
   2807                    7478 00134$:
                           7479 ;main.c:2318: if (lvl==16)
   2807 DD 7E 04           7480 	ld	a,4 (ix)
   280A D6 10              7481 	sub	a,#0x10
   280C 20 17              7482 	jr	NZ,00131$
                           7483 ;main.c:2320: levelParamCop0Speed = 8;
   280E 21r1Cs01           7484 	ld	hl,#_levelParamCop0Speed + 0
   2811 36 08              7485 	ld	(hl), #0x08
                           7486 ;main.c:2321: levelParamCop1Speed = 9;
   2813 21r1Ds01           7487 	ld	hl,#_levelParamCop1Speed + 0
   2816 36 09              7488 	ld	(hl), #0x09
                           7489 ;main.c:2322: levelParamCop2Speed = 9;
   2818 21r1Es01           7490 	ld	hl,#_levelParamCop2Speed + 0
   281B 36 09              7491 	ld	(hl), #0x09
                           7492 ;main.c:2323: levelParamCop3Speed = 9;
   281D 21r1Fs01           7493 	ld	hl,#_levelParamCop3Speed + 0
   2820 36 09              7494 	ld	(hl), #0x09
   2822 C3rDFs2A           7495 	jp	00177$
   2825                    7496 00131$:
                           7497 ;main.c:2325: if (lvl==17)
   2825 DD 7E 04           7498 	ld	a,4 (ix)
   2828 D6 11              7499 	sub	a,#0x11
   282A 20 17              7500 	jr	NZ,00128$
                           7501 ;main.c:2327: levelParamCop0Speed = 9;
   282C 21r1Cs01           7502 	ld	hl,#_levelParamCop0Speed + 0
   282F 36 09              7503 	ld	(hl), #0x09
                           7504 ;main.c:2328: levelParamCop1Speed = 9;
   2831 21r1Ds01           7505 	ld	hl,#_levelParamCop1Speed + 0
   2834 36 09              7506 	ld	(hl), #0x09
                           7507 ;main.c:2329: levelParamCop2Speed = 9;
   2836 21r1Es01           7508 	ld	hl,#_levelParamCop2Speed + 0
   2839 36 09              7509 	ld	(hl), #0x09
                           7510 ;main.c:2330: levelParamCop3Speed = 9;
   283B 21r1Fs01           7511 	ld	hl,#_levelParamCop3Speed + 0
   283E 36 09              7512 	ld	(hl), #0x09
   2840 C3rDFs2A           7513 	jp	00177$
   2843                    7514 00128$:
                           7515 ;main.c:2332: if (lvl==18)
   2843 DD 7E 04           7516 	ld	a,4 (ix)
   2846 D6 12              7517 	sub	a,#0x12
   2848 20 17              7518 	jr	NZ,00125$
                           7519 ;main.c:2334: levelParamCop0Speed = 9;
   284A 21r1Cs01           7520 	ld	hl,#_levelParamCop0Speed + 0
   284D 36 09              7521 	ld	(hl), #0x09
                           7522 ;main.c:2335: levelParamCop1Speed = 9;
   284F 21r1Ds01           7523 	ld	hl,#_levelParamCop1Speed + 0
   2852 36 09              7524 	ld	(hl), #0x09
                           7525 ;main.c:2336: levelParamCop2Speed = 9;
   2854 21r1Es01           7526 	ld	hl,#_levelParamCop2Speed + 0
   2857 36 09              7527 	ld	(hl), #0x09
                           7528 ;main.c:2337: levelParamCop3Speed = 9;
   2859 21r1Fs01           7529 	ld	hl,#_levelParamCop3Speed + 0
   285C 36 09              7530 	ld	(hl), #0x09
   285E C3rDFs2A           7531 	jp	00177$
   2861                    7532 00125$:
                           7533 ;main.c:2339: if (lvl==19)
   2861 DD 7E 04           7534 	ld	a,4 (ix)
   2864 D6 13              7535 	sub	a,#0x13
   2866 20 17              7536 	jr	NZ,00122$
                           7537 ;main.c:2341: levelParamCop0Speed = 9;
   2868 21r1Cs01           7538 	ld	hl,#_levelParamCop0Speed + 0
   286B 36 09              7539 	ld	(hl), #0x09
                           7540 ;main.c:2342: levelParamCop1Speed = 9;
   286D 21r1Ds01           7541 	ld	hl,#_levelParamCop1Speed + 0
   2870 36 09              7542 	ld	(hl), #0x09
                           7543 ;main.c:2343: levelParamCop2Speed = 9;
   2872 21r1Es01           7544 	ld	hl,#_levelParamCop2Speed + 0
   2875 36 09              7545 	ld	(hl), #0x09
                           7546 ;main.c:2344: levelParamCop3Speed = 10;
   2877 21r1Fs01           7547 	ld	hl,#_levelParamCop3Speed + 0
   287A 36 0A              7548 	ld	(hl), #0x0A
   287C C3rDFs2A           7549 	jp	00177$
   287F                    7550 00122$:
                           7551 ;main.c:2347: if (lvl==20)
   287F DD 7E 04           7552 	ld	a,4 (ix)
   2882 D6 14              7553 	sub	a,#0x14
   2884 20 5F              7554 	jr	NZ,00119$
                           7555 ;main.c:2349: levelParamCop0Speed = 9;
   2886 21r1Cs01           7556 	ld	hl,#_levelParamCop0Speed + 0
   2889 36 09              7557 	ld	(hl), #0x09
                           7558 ;main.c:2350: levelParamCop1Speed = 9;
   288B 21r1Ds01           7559 	ld	hl,#_levelParamCop1Speed + 0
   288E 36 09              7560 	ld	(hl), #0x09
                           7561 ;main.c:2351: levelParamCop2Speed = 9;
   2890 21r1Es01           7562 	ld	hl,#_levelParamCop2Speed + 0
   2893 36 09              7563 	ld	(hl), #0x09
                           7564 ;main.c:2352: levelParamCop3Speed = 10;
   2895 21r1Fs01           7565 	ld	hl,#_levelParamCop3Speed + 0
   2898 36 0A              7566 	ld	(hl), #0x0A
                           7567 ;main.c:2353: levelParamScatterModeTime = 200; // On baisse le scatter
   289A FD 21r20s01        7568 	ld	iy,#_levelParamScatterModeTime
   289E FD 36 00 C8        7569 	ld	0 (iy),#0xC8
   28A2 FD 36 01 00        7570 	ld	1 (iy),#0x00
                           7571 ;main.c:2354: levelParamCopFreezeBonus = 200;
   28A6 FD 21r22s01        7572 	ld	iy,#_levelParamCopFreezeBonus
   28AA FD 36 00 C8        7573 	ld	0 (iy),#0xC8
   28AE FD 36 01 00        7574 	ld	1 (iy),#0x00
                           7575 ;main.c:2355: levelParamCop0FreezeStart = 100;
   28B2 FD 21r27s01        7576 	ld	iy,#_levelParamCop0FreezeStart
   28B6 FD 36 00 64        7577 	ld	0 (iy),#0x64
   28BA FD 36 01 00        7578 	ld	1 (iy),#0x00
                           7579 ;main.c:2356: levelParamCop1FreezeStart = 200;
   28BE FD 21r29s01        7580 	ld	iy,#_levelParamCop1FreezeStart
   28C2 FD 36 00 C8        7581 	ld	0 (iy),#0xC8
   28C6 FD 36 01 00        7582 	ld	1 (iy),#0x00
                           7583 ;main.c:2357: levelParamCop2FreezeStart = 300;
   28CA FD 21r2Bs01        7584 	ld	iy,#_levelParamCop2FreezeStart
   28CE FD 36 00 2C        7585 	ld	0 (iy),#0x2C
   28D2 FD 36 01 01        7586 	ld	1 (iy),#0x01
                           7587 ;main.c:2358: levelParamCop3FreezeStart = 300;				
   28D6 FD 21r2Ds01        7588 	ld	iy,#_levelParamCop3FreezeStart
   28DA FD 36 00 2C        7589 	ld	0 (iy),#0x2C
   28DE FD 36 01 01        7590 	ld	1 (iy),#0x01
   28E2 C3rDFs2A           7591 	jp	00177$
   28E5                    7592 00119$:
                           7593 ;main.c:2361: if (lvl==21)
   28E5 DD 7E 04           7594 	ld	a,4 (ix)
   28E8 D6 15              7595 	sub	a,#0x15
   28EA 20 5F              7596 	jr	NZ,00116$
                           7597 ;main.c:2363: levelParamCop0Speed = 9;
   28EC 21r1Cs01           7598 	ld	hl,#_levelParamCop0Speed + 0
   28EF 36 09              7599 	ld	(hl), #0x09
                           7600 ;main.c:2364: levelParamCop1Speed = 9;
   28F1 21r1Ds01           7601 	ld	hl,#_levelParamCop1Speed + 0
   28F4 36 09              7602 	ld	(hl), #0x09
                           7603 ;main.c:2365: levelParamCop2Speed = 10;
   28F6 21r1Es01           7604 	ld	hl,#_levelParamCop2Speed + 0
   28F9 36 0A              7605 	ld	(hl), #0x0A
                           7606 ;main.c:2366: levelParamCop3Speed = 10;
   28FB 21r1Fs01           7607 	ld	hl,#_levelParamCop3Speed + 0
   28FE 36 0A              7608 	ld	(hl), #0x0A
                           7609 ;main.c:2367: levelParamScatterModeTime = 100; // On baisse le scatter
   2900 FD 21r20s01        7610 	ld	iy,#_levelParamScatterModeTime
   2904 FD 36 00 64        7611 	ld	0 (iy),#0x64
   2908 FD 36 01 00        7612 	ld	1 (iy),#0x00
                           7613 ;main.c:2368: levelParamCopFreezeBonus = 200;
   290C FD 21r22s01        7614 	ld	iy,#_levelParamCopFreezeBonus
   2910 FD 36 00 C8        7615 	ld	0 (iy),#0xC8
   2914 FD 36 01 00        7616 	ld	1 (iy),#0x00
                           7617 ;main.c:2369: levelParamCop0FreezeStart = 100;
   2918 FD 21r27s01        7618 	ld	iy,#_levelParamCop0FreezeStart
   291C FD 36 00 64        7619 	ld	0 (iy),#0x64
   2920 FD 36 01 00        7620 	ld	1 (iy),#0x00
                           7621 ;main.c:2370: levelParamCop1FreezeStart = 200;
   2924 FD 21r29s01        7622 	ld	iy,#_levelParamCop1FreezeStart
   2928 FD 36 00 C8        7623 	ld	0 (iy),#0xC8
   292C FD 36 01 00        7624 	ld	1 (iy),#0x00
                           7625 ;main.c:2371: levelParamCop2FreezeStart = 300;
   2930 FD 21r2Bs01        7626 	ld	iy,#_levelParamCop2FreezeStart
   2934 FD 36 00 2C        7627 	ld	0 (iy),#0x2C
   2938 FD 36 01 01        7628 	ld	1 (iy),#0x01
                           7629 ;main.c:2372: levelParamCop3FreezeStart = 300;				
   293C FD 21r2Ds01        7630 	ld	iy,#_levelParamCop3FreezeStart
   2940 FD 36 00 2C        7631 	ld	0 (iy),#0x2C
   2944 FD 36 01 01        7632 	ld	1 (iy),#0x01
   2948 C3rDFs2A           7633 	jp	00177$
   294B                    7634 00116$:
                           7635 ;main.c:2375: if (lvl==22)
   294B DD 7E 04           7636 	ld	a,4 (ix)
   294E D6 16              7637 	sub	a,#0x16
   2950 20 5F              7638 	jr	NZ,00113$
                           7639 ;main.c:2377: levelParamCop0Speed = 9;
   2952 21r1Cs01           7640 	ld	hl,#_levelParamCop0Speed + 0
   2955 36 09              7641 	ld	(hl), #0x09
                           7642 ;main.c:2378: levelParamCop1Speed = 9;
   2957 21r1Ds01           7643 	ld	hl,#_levelParamCop1Speed + 0
   295A 36 09              7644 	ld	(hl), #0x09
                           7645 ;main.c:2379: levelParamCop2Speed = 10;
   295C 21r1Es01           7646 	ld	hl,#_levelParamCop2Speed + 0
   295F 36 0A              7647 	ld	(hl), #0x0A
                           7648 ;main.c:2380: levelParamCop3Speed = 10;
   2961 21r1Fs01           7649 	ld	hl,#_levelParamCop3Speed + 0
   2964 36 0A              7650 	ld	(hl), #0x0A
                           7651 ;main.c:2381: levelParamScatterModeTime = 100; // On baisse le scatter
   2966 FD 21r20s01        7652 	ld	iy,#_levelParamScatterModeTime
   296A FD 36 00 64        7653 	ld	0 (iy),#0x64
   296E FD 36 01 00        7654 	ld	1 (iy),#0x00
                           7655 ;main.c:2382: levelParamCopFreezeBonus = 100;
   2972 FD 21r22s01        7656 	ld	iy,#_levelParamCopFreezeBonus
   2976 FD 36 00 64        7657 	ld	0 (iy),#0x64
   297A FD 36 01 00        7658 	ld	1 (iy),#0x00
                           7659 ;main.c:2383: levelParamCop0FreezeStart = 100;
   297E FD 21r27s01        7660 	ld	iy,#_levelParamCop0FreezeStart
   2982 FD 36 00 64        7661 	ld	0 (iy),#0x64
   2986 FD 36 01 00        7662 	ld	1 (iy),#0x00
                           7663 ;main.c:2384: levelParamCop1FreezeStart = 200;
   298A FD 21r29s01        7664 	ld	iy,#_levelParamCop1FreezeStart
   298E FD 36 00 C8        7665 	ld	0 (iy),#0xC8
   2992 FD 36 01 00        7666 	ld	1 (iy),#0x00
                           7667 ;main.c:2385: levelParamCop2FreezeStart = 300;
   2996 FD 21r2Bs01        7668 	ld	iy,#_levelParamCop2FreezeStart
   299A FD 36 00 2C        7669 	ld	0 (iy),#0x2C
   299E FD 36 01 01        7670 	ld	1 (iy),#0x01
                           7671 ;main.c:2386: levelParamCop3FreezeStart = 300;				
   29A2 FD 21r2Ds01        7672 	ld	iy,#_levelParamCop3FreezeStart
   29A6 FD 36 00 2C        7673 	ld	0 (iy),#0x2C
   29AA FD 36 01 01        7674 	ld	1 (iy),#0x01
   29AE C3rDFs2A           7675 	jp	00177$
   29B1                    7676 00113$:
                           7677 ;main.c:2389: if (lvl==23)
   29B1 DD 7E 04           7678 	ld	a,4 (ix)
   29B4 D6 17              7679 	sub	a,#0x17
   29B6 20 5F              7680 	jr	NZ,00110$
                           7681 ;main.c:2391: levelParamCop0Speed = 9;
   29B8 21r1Cs01           7682 	ld	hl,#_levelParamCop0Speed + 0
   29BB 36 09              7683 	ld	(hl), #0x09
                           7684 ;main.c:2392: levelParamCop1Speed = 10;
   29BD 21r1Ds01           7685 	ld	hl,#_levelParamCop1Speed + 0
   29C0 36 0A              7686 	ld	(hl), #0x0A
                           7687 ;main.c:2393: levelParamCop2Speed = 10;
   29C2 21r1Es01           7688 	ld	hl,#_levelParamCop2Speed + 0
   29C5 36 0A              7689 	ld	(hl), #0x0A
                           7690 ;main.c:2394: levelParamCop3Speed = 10;
   29C7 21r1Fs01           7691 	ld	hl,#_levelParamCop3Speed + 0
   29CA 36 0A              7692 	ld	(hl), #0x0A
                           7693 ;main.c:2395: levelParamScatterModeTime = 100; // On baisse le scatter
   29CC FD 21r20s01        7694 	ld	iy,#_levelParamScatterModeTime
   29D0 FD 36 00 64        7695 	ld	0 (iy),#0x64
   29D4 FD 36 01 00        7696 	ld	1 (iy),#0x00
                           7697 ;main.c:2396: levelParamCopFreezeBonus = 100;
   29D8 FD 21r22s01        7698 	ld	iy,#_levelParamCopFreezeBonus
   29DC FD 36 00 64        7699 	ld	0 (iy),#0x64
   29E0 FD 36 01 00        7700 	ld	1 (iy),#0x00
                           7701 ;main.c:2397: levelParamCop0FreezeStart = 50;
   29E4 FD 21r27s01        7702 	ld	iy,#_levelParamCop0FreezeStart
   29E8 FD 36 00 32        7703 	ld	0 (iy),#0x32
   29EC FD 36 01 00        7704 	ld	1 (iy),#0x00
                           7705 ;main.c:2398: levelParamCop1FreezeStart = 100;
   29F0 FD 21r29s01        7706 	ld	iy,#_levelParamCop1FreezeStart
   29F4 FD 36 00 64        7707 	ld	0 (iy),#0x64
   29F8 FD 36 01 00        7708 	ld	1 (iy),#0x00
                           7709 ;main.c:2399: levelParamCop2FreezeStart = 150;
   29FC FD 21r2Bs01        7710 	ld	iy,#_levelParamCop2FreezeStart
   2A00 FD 36 00 96        7711 	ld	0 (iy),#0x96
   2A04 FD 36 01 00        7712 	ld	1 (iy),#0x00
                           7713 ;main.c:2400: levelParamCop3FreezeStart = 150;				
   2A08 FD 21r2Ds01        7714 	ld	iy,#_levelParamCop3FreezeStart
   2A0C FD 36 00 96        7715 	ld	0 (iy),#0x96
   2A10 FD 36 01 00        7716 	ld	1 (iy),#0x00
   2A14 C3rDFs2A           7717 	jp	00177$
   2A17                    7718 00110$:
                           7719 ;main.c:2403: if (lvl==24)
   2A17 DD 7E 04           7720 	ld	a,4 (ix)
   2A1A D6 18              7721 	sub	a,#0x18
   2A1C 20 5E              7722 	jr	NZ,00107$
                           7723 ;main.c:2405: levelParamCop0Speed = 10;
   2A1E 21r1Cs01           7724 	ld	hl,#_levelParamCop0Speed + 0
   2A21 36 0A              7725 	ld	(hl), #0x0A
                           7726 ;main.c:2406: levelParamCop1Speed = 10;
   2A23 21r1Ds01           7727 	ld	hl,#_levelParamCop1Speed + 0
   2A26 36 0A              7728 	ld	(hl), #0x0A
                           7729 ;main.c:2407: levelParamCop2Speed = 10;
   2A28 21r1Es01           7730 	ld	hl,#_levelParamCop2Speed + 0
   2A2B 36 0A              7731 	ld	(hl), #0x0A
                           7732 ;main.c:2408: levelParamCop3Speed = 10;
   2A2D 21r1Fs01           7733 	ld	hl,#_levelParamCop3Speed + 0
   2A30 36 0A              7734 	ld	(hl), #0x0A
                           7735 ;main.c:2409: levelParamScatterModeTime = 100; // On baisse le scatter
   2A32 FD 21r20s01        7736 	ld	iy,#_levelParamScatterModeTime
   2A36 FD 36 00 64        7737 	ld	0 (iy),#0x64
   2A3A FD 36 01 00        7738 	ld	1 (iy),#0x00
                           7739 ;main.c:2410: levelParamCopFreezeBonus = 100;
   2A3E FD 21r22s01        7740 	ld	iy,#_levelParamCopFreezeBonus
   2A42 FD 36 00 64        7741 	ld	0 (iy),#0x64
   2A46 FD 36 01 00        7742 	ld	1 (iy),#0x00
                           7743 ;main.c:2411: levelParamCop0FreezeStart = 50;
   2A4A FD 21r27s01        7744 	ld	iy,#_levelParamCop0FreezeStart
   2A4E FD 36 00 32        7745 	ld	0 (iy),#0x32
   2A52 FD 36 01 00        7746 	ld	1 (iy),#0x00
                           7747 ;main.c:2412: levelParamCop1FreezeStart = 100;
   2A56 FD 21r29s01        7748 	ld	iy,#_levelParamCop1FreezeStart
   2A5A FD 36 00 64        7749 	ld	0 (iy),#0x64
   2A5E FD 36 01 00        7750 	ld	1 (iy),#0x00
                           7751 ;main.c:2413: levelParamCop2FreezeStart = 150;
   2A62 FD 21r2Bs01        7752 	ld	iy,#_levelParamCop2FreezeStart
   2A66 FD 36 00 96        7753 	ld	0 (iy),#0x96
   2A6A FD 36 01 00        7754 	ld	1 (iy),#0x00
                           7755 ;main.c:2414: levelParamCop3FreezeStart = 150;				
   2A6E FD 21r2Ds01        7756 	ld	iy,#_levelParamCop3FreezeStart
   2A72 FD 36 00 96        7757 	ld	0 (iy),#0x96
   2A76 FD 36 01 00        7758 	ld	1 (iy),#0x00
   2A7A 18 63              7759 	jr	00177$
   2A7C                    7760 00107$:
                           7761 ;main.c:2417: if (lvl>=25)
   2A7C DD 7E 04           7762 	ld	a,4 (ix)
   2A7F D6 19              7763 	sub	a,#0x19
   2A81 38 5C              7764 	jr	C,00177$
                           7765 ;main.c:2419: levelParamCop0Speed = 10;
   2A83 21r1Cs01           7766 	ld	hl,#_levelParamCop0Speed + 0
   2A86 36 0A              7767 	ld	(hl), #0x0A
                           7768 ;main.c:2420: levelParamCop1Speed = 10;
   2A88 21r1Ds01           7769 	ld	hl,#_levelParamCop1Speed + 0
   2A8B 36 0A              7770 	ld	(hl), #0x0A
                           7771 ;main.c:2421: levelParamCop2Speed = 10;
   2A8D 21r1Es01           7772 	ld	hl,#_levelParamCop2Speed + 0
   2A90 36 0A              7773 	ld	(hl), #0x0A
                           7774 ;main.c:2422: levelParamCop3Speed = 10;
   2A92 21r1Fs01           7775 	ld	hl,#_levelParamCop3Speed + 0
   2A95 36 0A              7776 	ld	(hl), #0x0A
                           7777 ;main.c:2423: levelParamScatterModeTime = 0; // On baisse le scatter
   2A97 FD 21r20s01        7778 	ld	iy,#_levelParamScatterModeTime
   2A9B FD 36 00 00        7779 	ld	0 (iy),#0x00
   2A9F FD 36 01 00        7780 	ld	1 (iy),#0x00
                           7781 ;main.c:2424: levelParamCopFreezeBonus = 100;
   2AA3 FD 21r22s01        7782 	ld	iy,#_levelParamCopFreezeBonus
   2AA7 FD 36 00 64        7783 	ld	0 (iy),#0x64
   2AAB FD 36 01 00        7784 	ld	1 (iy),#0x00
                           7785 ;main.c:2425: levelParamCop0FreezeStart = 50;
   2AAF FD 21r27s01        7786 	ld	iy,#_levelParamCop0FreezeStart
   2AB3 FD 36 00 32        7787 	ld	0 (iy),#0x32
   2AB7 FD 36 01 00        7788 	ld	1 (iy),#0x00
                           7789 ;main.c:2426: levelParamCop1FreezeStart = 100;
   2ABB FD 21r29s01        7790 	ld	iy,#_levelParamCop1FreezeStart
   2ABF FD 36 00 64        7791 	ld	0 (iy),#0x64
   2AC3 FD 36 01 00        7792 	ld	1 (iy),#0x00
                           7793 ;main.c:2427: levelParamCop2FreezeStart = 150;
   2AC7 FD 21r2Bs01        7794 	ld	iy,#_levelParamCop2FreezeStart
   2ACB FD 36 00 96        7795 	ld	0 (iy),#0x96
   2ACF FD 36 01 00        7796 	ld	1 (iy),#0x00
                           7797 ;main.c:2428: levelParamCop3FreezeStart = 150;				
   2AD3 FD 21r2Ds01        7798 	ld	iy,#_levelParamCop3FreezeStart
   2AD7 FD 36 00 96        7799 	ld	0 (iy),#0x96
   2ADB FD 36 01 00        7800 	ld	1 (iy),#0x00
   2ADF                    7801 00177$:
                           7802 ;main.c:2431: levelParamBonusShowTime = 400;
   2ADF FD 21r24s01        7803 	ld	iy,#_levelParamBonusShowTime
   2AE3 FD 36 00 90        7804 	ld	0 (iy),#0x90
   2AE7 FD 36 01 01        7805 	ld	1 (iy),#0x01
                           7806 ;main.c:2432: levelParamShowPlayerDoors = 200;
   2AEB FD 21r31s01        7807 	ld	iy,#_levelParamShowPlayerDoors
   2AEF FD 36 00 C8        7808 	ld	0 (iy),#0xC8
   2AF3 FD 36 01 00        7809 	ld	1 (iy),#0x00
                           7810 ;main.c:2436: sprites[SPRITE0].y = 204;
   2AF7 21r00s00           7811 	ld	hl,#_sprites
   2AFA 36 CC              7812 	ld	(hl),#0xCC
                           7813 ;main.c:2437: sprites[SPRITE1].y = 204;
   2AFC 21r7Cs00           7814 	ld	hl,#0x007c + _sprites
   2AFF 36 CC              7815 	ld	(hl),#0xCC
                           7816 ;main.c:2438: sprites[SPRITE2].y = 204;
   2B01 21r04s00           7817 	ld	hl,#0x0004 + _sprites
   2B04 36 CC              7818 	ld	(hl),#0xCC
                           7819 ;main.c:2439: sprites[SPRITE3].y = 204;
   2B06 21r78s00           7820 	ld	hl,#0x0078 + _sprites
   2B09 36 CC              7821 	ld	(hl),#0xCC
                           7822 ;main.c:2440: sprites[SPRITE4].y = 204;
   2B0B 21r08s00           7823 	ld	hl,#0x0008 + _sprites
   2B0E 36 CC              7824 	ld	(hl),#0xCC
                           7825 ;main.c:2441: sprites[SPRITE5].y = 204;
   2B10 21r74s00           7826 	ld	hl,#0x0074 + _sprites
   2B13 36 CC              7827 	ld	(hl),#0xCC
                           7828 ;main.c:2442: sprites[SPRITE6].y = 204;
   2B15 21r0Cs00           7829 	ld	hl,#0x000c + _sprites
   2B18 36 CC              7830 	ld	(hl),#0xCC
                           7831 ;main.c:2444: playerDoors[0].timer=0;
   2B1A 21r56s00           7832 	ld	hl,#_playerDoors
   2B1D 36 00              7833 	ld	(hl),#0x00
   2B1F 23                 7834 	inc	hl
   2B20 36 00              7835 	ld	(hl),#0x00
                           7836 ;main.c:2445: playerDoors[0].c1x=0;
   2B22 21r58s00           7837 	ld	hl,#0x0002 + _playerDoors
   2B25 36 00              7838 	ld	(hl),#0x00
                           7839 ;main.c:2446: playerDoors[0].c1x=0;
   2B27 36 00              7840 	ld	(hl),#0x00
                           7841 ;main.c:2447: playerDoors[0].c2x=0;
   2B29 23                 7842 	inc	hl
   2B2A 23                 7843 	inc	hl
   2B2B 36 00              7844 	ld	(hl),#0x00
                           7845 ;main.c:2448: playerDoors[0].c2y=0;
   2B2D 23                 7846 	inc	hl
   2B2E 36 00              7847 	ld	(hl),#0x00
                           7848 ;main.c:2449: playerDoors[0].c1=0;
   2B30 23                 7849 	inc	hl
   2B31 36 00              7850 	ld	(hl),#0x00
                           7851 ;main.c:2450: playerDoors[0].c2=0;
   2B33 23                 7852 	inc	hl
   2B34 36 00              7853 	ld	(hl),#0x00
                           7854 ;main.c:2451: playerDoors[0].affiche=NOK;
   2B36 23                 7855 	inc	hl
   2B37 36 01              7856 	ld	(hl),#0x01
                           7857 ;main.c:2453: playerDoors[1].timer=0;
   2B39 21r63s00           7858 	ld	hl,#0x000d + _playerDoors
   2B3C 36 00              7859 	ld	(hl),#0x00
   2B3E 23                 7860 	inc	hl
   2B3F 36 00              7861 	ld	(hl),#0x00
                           7862 ;main.c:2454: playerDoors[1].c1x=0;
   2B41 23                 7863 	inc	hl
   2B42 36 00              7864 	ld	(hl),#0x00
                           7865 ;main.c:2455: playerDoors[1].c1x=0;
   2B44 36 00              7866 	ld	(hl),#0x00
                           7867 ;main.c:2456: playerDoors[1].c2x=0;
   2B46 23                 7868 	inc	hl
   2B47 23                 7869 	inc	hl
   2B48 36 00              7870 	ld	(hl),#0x00
                           7871 ;main.c:2457: playerDoors[1].c2y=0;
   2B4A 23                 7872 	inc	hl
   2B4B 36 00              7873 	ld	(hl),#0x00
                           7874 ;main.c:2458: playerDoors[1].c1=0;
   2B4D 23                 7875 	inc	hl
   2B4E 36 00              7876 	ld	(hl),#0x00
                           7877 ;main.c:2459: playerDoors[1].c2=0;
   2B50 23                 7878 	inc	hl
   2B51 36 00              7879 	ld	(hl),#0x00
                           7880 ;main.c:2460: playerDoors[1].affiche=NOK;
   2B53 23                 7881 	inc	hl
   2B54 36 01              7882 	ld	(hl),#0x01
                           7883 ;main.c:2462: initAutoDoor();
   2B56 CDr64s07           7884 	call	_initAutoDoor
                           7885 ;main.c:2465: animateSprite = 0;
   2B59 21r8Cs00           7886 	ld	hl,#_animateSprite + 0
   2B5C 36 00              7887 	ld	(hl), #0x00
                           7888 ;main.c:2466: scatterModeTimer=0;
   2B5E FD 21r8Ds00        7889 	ld	iy,#_scatterModeTimer
   2B62 FD 36 00 00        7890 	ld	0 (iy),#0x00
   2B66 FD 36 01 00        7891 	ld	1 (iy),#0x00
                           7892 ;main.c:2468: directionDemandee=NOK;
   2B6A 21r33s01           7893 	ld	hl,#_directionDemandee + 0
   2B6D 36 01              7894 	ld	(hl), #0x01
                           7895 ;main.c:2470: reInitPlayer();
   2B6F CDrA7s16           7896 	call	_reInitPlayer
   2B72 DD E1              7897 	pop	ix
   2B74 C9                 7898 	ret
   2B75                    7899 _initLevel_end::
                           7900 ;main.c:2474: void gameLoop(void)
                           7901 ;	---------------------------------
                           7902 ; Function gameLoop
                           7903 ; ---------------------------------
   2B75                    7904 _gameLoop_start::
   2B75                    7905 _gameLoop:
                           7906 ;main.c:2477: toucheRelachee = 0;
   2B75 0E 00              7907 	ld	c,#0x00
                           7908 ;main.c:2479: reInitPlayer();
   2B77 C5                 7909 	push	bc
   2B78 CDrA7s16           7910 	call	_reInitPlayer
   2B7B C1                 7911 	pop	bc
                           7912 ;main.c:2480: while (1)
   2B7C                    7913 00186$:
                           7914 ;main.c:2483: if (joypad_1!=0)
   2B7C AF                 7915 	xor	a,a
   2B7D FD 21r00s00        7916 	ld	iy,#_joypad_1
   2B81 FD B6 00           7917 	or	a,0 (iy)
   2B84 28 6B              7918 	jr	Z,00117$
                           7919 ;main.c:2485: if (joypad_1 & LEFT) {player.regard = GAUCHE;directionDemandee=GAUCHE;timerDirectionDemandee=16;}
   2B86 FD 7E 00           7920 	ld	a,0 (iy)
   2B89 E6 08              7921 	and	a,#0x08
   2B8B 28 11              7922 	jr	Z,00110$
   2B8D 21r0Fs00           7923 	ld	hl,#0x000d + _player
   2B90 36 02              7924 	ld	(hl),#0x02
   2B92 21r33s01           7925 	ld	hl,#_directionDemandee + 0
   2B95 36 02              7926 	ld	(hl), #0x02
   2B97 21r34s01           7927 	ld	hl,#_timerDirectionDemandee + 0
   2B9A 36 10              7928 	ld	(hl), #0x10
   2B9C 18 3C              7929 	jr	00111$
   2B9E                    7930 00110$:
                           7931 ;main.c:2487: if (joypad_1 & RIGHT) {player.regard = DROITE;directionDemandee=DROITE;timerDirectionDemandee=16;}	
   2B9E 3Ar00s00           7932 	ld	a,(#_joypad_1 + 0)
   2BA1 E6 02              7933 	and	a,#0x02
   2BA3 28 11              7934 	jr	Z,00107$
   2BA5 21r0Fs00           7935 	ld	hl,#0x000d + _player
   2BA8 36 03              7936 	ld	(hl),#0x03
   2BAA 21r33s01           7937 	ld	hl,#_directionDemandee + 0
   2BAD 36 03              7938 	ld	(hl), #0x03
   2BAF 21r34s01           7939 	ld	hl,#_timerDirectionDemandee + 0
   2BB2 36 10              7940 	ld	(hl), #0x10
   2BB4 18 24              7941 	jr	00111$
   2BB6                    7942 00107$:
                           7943 ;main.c:2489: if (joypad_1 & UP){directionDemandee=HAUT;timerDirectionDemandee=16;}
   2BB6 3Ar00s00           7944 	ld	a,(#_joypad_1 + 0)
   2BB9 E6 01              7945 	and	a,#0x01
   2BBB 28 0C              7946 	jr	Z,00104$
   2BBD 21r33s01           7947 	ld	hl,#_directionDemandee + 0
   2BC0 36 00              7948 	ld	(hl), #0x00
   2BC2 21r34s01           7949 	ld	hl,#_timerDirectionDemandee + 0
   2BC5 36 10              7950 	ld	(hl), #0x10
   2BC7 18 11              7951 	jr	00111$
   2BC9                    7952 00104$:
                           7953 ;main.c:2491: if (joypad_1 & DOWN) {directionDemandee=BAS;timerDirectionDemandee=16;}
   2BC9 3Ar00s00           7954 	ld	a,(#_joypad_1 + 0)
   2BCC E6 04              7955 	and	a,#0x04
   2BCE 28 0A              7956 	jr	Z,00111$
   2BD0 21r33s01           7957 	ld	hl,#_directionDemandee + 0
   2BD3 36 01              7958 	ld	(hl), #0x01
   2BD5 21r34s01           7959 	ld	hl,#_timerDirectionDemandee + 0
   2BD8 36 10              7960 	ld	(hl), #0x10
   2BDA                    7961 00111$:
                           7962 ;main.c:2493: if ( ((joypad_1 & FIRE1) || (joypad_1 & FIRE2) )&& (toucheRelachee==0))
   2BDA 3Ar00s00           7963 	ld	a,(#_joypad_1 + 0)
   2BDD E6 80              7964 	and	a,#0x80
   2BDF 20 07              7965 	jr	NZ,00115$
   2BE1 3Ar00s00           7966 	ld	a,(#_joypad_1 + 0)
   2BE4 E6 40              7967 	and	a,#0x40
   2BE6 28 09              7968 	jr	Z,00117$
   2BE8                    7969 00115$:
   2BE8 AF                 7970 	xor	a,a
   2BE9 B1                 7971 	or	a,c
   2BEA 20 05              7972 	jr	NZ,00117$
                           7973 ;main.c:2495: createDoor();
   2BEC CDr6Ds23           7974 	call	_createDoor
                           7975 ;main.c:2496: toucheRelachee = 8;
   2BEF 0E 08              7976 	ld	c,#0x08
   2BF1                    7977 00117$:
                           7978 ;main.c:2502: if ((directionDemandee==GAUCHE) && (timerDirectionDemandee!=0)) {changePlayerDirection(GAUCHE);}
   2BF1 3Ar33s01           7979 	ld	a,(#_directionDemandee + 0)
   2BF4 D6 02              7980 	sub	a,#0x02
   2BF6 20 13              7981 	jr	NZ,00130$
   2BF8 AF                 7982 	xor	a,a
   2BF9 21r34s01           7983 	ld	hl,#_timerDirectionDemandee + 0
   2BFC B6                 7984 	or	a,(hl)
   2BFD 28 0C              7985 	jr	Z,00130$
   2BFF C5                 7986 	push	bc
   2C00 3E 02              7987 	ld	a,#0x02
   2C02 F5                 7988 	push	af
   2C03 33                 7989 	inc	sp
   2C04 CDr1Es11           7990 	call	_changePlayerDirection
   2C07 33                 7991 	inc	sp
   2C08 C1                 7992 	pop	bc
   2C09 18 4C              7993 	jr	00131$
   2C0B                    7994 00130$:
                           7995 ;main.c:2504: if ((directionDemandee==DROITE) && (timerDirectionDemandee!=0)) {changePlayerDirection(DROITE);}
   2C0B 3Ar33s01           7996 	ld	a,(#_directionDemandee + 0)
   2C0E D6 03              7997 	sub	a,#0x03
   2C10 20 13              7998 	jr	NZ,00126$
   2C12 AF                 7999 	xor	a,a
   2C13 21r34s01           8000 	ld	hl,#_timerDirectionDemandee + 0
   2C16 B6                 8001 	or	a,(hl)
   2C17 28 0C              8002 	jr	Z,00126$
   2C19 C5                 8003 	push	bc
   2C1A 3E 03              8004 	ld	a,#0x03
   2C1C F5                 8005 	push	af
   2C1D 33                 8006 	inc	sp
   2C1E CDr1Es11           8007 	call	_changePlayerDirection
   2C21 33                 8008 	inc	sp
   2C22 C1                 8009 	pop	bc
   2C23 18 32              8010 	jr	00131$
   2C25                    8011 00126$:
                           8012 ;main.c:2506: if ((directionDemandee==HAUT) && (timerDirectionDemandee!=0)) {changePlayerDirection(HAUT);}
   2C25 AF                 8013 	xor	a,a
   2C26 21r33s01           8014 	ld	hl,#_directionDemandee + 0
   2C29 B6                 8015 	or	a,(hl)
   2C2A 20 13              8016 	jr	NZ,00122$
   2C2C AF                 8017 	xor	a,a
   2C2D 21r34s01           8018 	ld	hl,#_timerDirectionDemandee + 0
   2C30 B6                 8019 	or	a,(hl)
   2C31 28 0C              8020 	jr	Z,00122$
   2C33 C5                 8021 	push	bc
   2C34 3E 00              8022 	ld	a,#0x00
   2C36 F5                 8023 	push	af
   2C37 33                 8024 	inc	sp
   2C38 CDr1Es11           8025 	call	_changePlayerDirection
   2C3B 33                 8026 	inc	sp
   2C3C C1                 8027 	pop	bc
   2C3D 18 18              8028 	jr	00131$
   2C3F                    8029 00122$:
                           8030 ;main.c:2508: if ((directionDemandee==BAS) && (timerDirectionDemandee!=0)) {changePlayerDirection(BAS);}
   2C3F 3Ar33s01           8031 	ld	a,(#_directionDemandee + 0)
   2C42 D6 01              8032 	sub	a,#0x01
   2C44 20 11              8033 	jr	NZ,00131$
   2C46 AF                 8034 	xor	a,a
   2C47 21r34s01           8035 	ld	hl,#_timerDirectionDemandee + 0
   2C4A B6                 8036 	or	a,(hl)
   2C4B 28 0A              8037 	jr	Z,00131$
   2C4D C5                 8038 	push	bc
   2C4E 3E 01              8039 	ld	a,#0x01
   2C50 F5                 8040 	push	af
   2C51 33                 8041 	inc	sp
   2C52 CDr1Es11           8042 	call	_changePlayerDirection
   2C55 33                 8043 	inc	sp
   2C56 C1                 8044 	pop	bc
   2C57                    8045 00131$:
                           8046 ;main.c:2510: if (timerDirectionDemandee>0) timerDirectionDemandee--; else directionDemandee=NOK;
   2C57 AF                 8047 	xor	a,a
   2C58 FD 21r34s01        8048 	ld	iy,#_timerDirectionDemandee
   2C5C FD B6 00           8049 	or	a,0 (iy)
   2C5F 28 05              8050 	jr	Z,00134$
   2C61 FD 35 00           8051 	dec	0 (iy)
   2C64 18 05              8052 	jr	00135$
   2C66                    8053 00134$:
   2C66 21r33s01           8054 	ld	hl,#_directionDemandee + 0
   2C69 36 01              8055 	ld	(hl), #0x01
   2C6B                    8056 00135$:
                           8057 ;main.c:2512: if (toucheRelachee>0) toucheRelachee--;
   2C6B AF                 8058 	xor	a,a
   2C6C B1                 8059 	or	a,c
   2C6D 28 01              8060 	jr	Z,00137$
   2C6F 0D                 8061 	dec	c
   2C70                    8062 00137$:
                           8063 ;main.c:2514: checkPlayerGameCollisions();
   2C70 C5                 8064 	push	bc
   2C71 CDr77s13           8065 	call	_checkPlayerGameCollisions
   2C74 CDr41s11           8066 	call	_movePlayer
   2C77 CDr47s12           8067 	call	_animatePlayer
   2C7A CDr18s16           8068 	call	_renderSprite
   2C7D CDr35s22           8069 	call	_renderDoors
   2C80 C1                 8070 	pop	bc
                           8071 ;main.c:2521: if (animateSprite<levelParamCop0Speed)
   2C81 21r1Cs01           8072 	ld	hl,#_levelParamCop0Speed
   2C84 3Ar8Cs00           8073 	ld	a,(#_animateSprite + 0)
   2C87 96                 8074 	sub	a,(hl)
   2C88 30 0D              8075 	jr	NC,00139$
                           8076 ;main.c:2523: moveCop0();
   2C8A C5                 8077 	push	bc
   2C8B CDrCFs18           8078 	call	_moveCop0
   2C8E 3E 00              8079 	ld	a,#0x00
   2C90 F5                 8080 	push	af
   2C91 33                 8081 	inc	sp
   2C92 CDr34s21           8082 	call	_renderCop
   2C95 33                 8083 	inc	sp
   2C96 C1                 8084 	pop	bc
   2C97                    8085 00139$:
                           8086 ;main.c:2526: if (animateSprite<levelParamCop1Speed)
   2C97 21r1Ds01           8087 	ld	hl,#_levelParamCop1Speed
   2C9A 3Ar8Cs00           8088 	ld	a,(#_animateSprite + 0)
   2C9D 96                 8089 	sub	a,(hl)
   2C9E 30 0D              8090 	jr	NC,00141$
                           8091 ;main.c:2528: moveCop1();
   2CA0 C5                 8092 	push	bc
   2CA1 CDrD6s1A           8093 	call	_moveCop1
   2CA4 3E 01              8094 	ld	a,#0x01
   2CA6 F5                 8095 	push	af
   2CA7 33                 8096 	inc	sp
   2CA8 CDr34s21           8097 	call	_renderCop
   2CAB 33                 8098 	inc	sp
   2CAC C1                 8099 	pop	bc
   2CAD                    8100 00141$:
                           8101 ;main.c:2531: if (animateSprite<levelParamCop2Speed)
   2CAD 21r1Es01           8102 	ld	hl,#_levelParamCop2Speed
   2CB0 3Ar8Cs00           8103 	ld	a,(#_animateSprite + 0)
   2CB3 96                 8104 	sub	a,(hl)
   2CB4 30 0D              8105 	jr	NC,00143$
                           8106 ;main.c:2533: moveCop2();
   2CB6 C5                 8107 	push	bc
   2CB7 CDrB2s1C           8108 	call	_moveCop2
   2CBA 3E 02              8109 	ld	a,#0x02
   2CBC F5                 8110 	push	af
   2CBD 33                 8111 	inc	sp
   2CBE CDr34s21           8112 	call	_renderCop
   2CC1 33                 8113 	inc	sp
   2CC2 C1                 8114 	pop	bc
   2CC3                    8115 00143$:
                           8116 ;main.c:2536: if (animateSprite<levelParamCop3Speed)
   2CC3 21r1Fs01           8117 	ld	hl,#_levelParamCop3Speed
   2CC6 3Ar8Cs00           8118 	ld	a,(#_animateSprite + 0)
   2CC9 96                 8119 	sub	a,(hl)
   2CCA 30 0D              8120 	jr	NC,00145$
                           8121 ;main.c:2538: moveCop3();
   2CCC C5                 8122 	push	bc
   2CCD CDrB9s1E           8123 	call	_moveCop3
   2CD0 3E 03              8124 	ld	a,#0x03
   2CD2 F5                 8125 	push	af
   2CD3 33                 8126 	inc	sp
   2CD4 CDr34s21           8127 	call	_renderCop
   2CD7 33                 8128 	inc	sp
   2CD8 C1                 8129 	pop	bc
   2CD9                    8130 00145$:
                           8131 ;main.c:2542: renderBonus();
   2CD9 C5                 8132 	push	bc
   2CDA CDrC1s04           8133 	call	_renderBonus
   2CDD C1                 8134 	pop	bc
                           8135 ;main.c:2544: if (extend==1)
   2CDE 3Ar8As00           8136 	ld	a,(#_extend + 0)
   2CE1 D6 01              8137 	sub	a,#0x01
   2CE3 20 4D              8138 	jr	NZ,00161$
                           8139 ;main.c:2546: if (currentAbsoluteLevel==3)
   2CE5 3Ar98s00           8140 	ld	a,(#_currentAbsoluteLevel + 0)
   2CE8 D6 03              8141 	sub	a,#0x03
   2CEA 20 15              8142 	jr	NZ,00156$
                           8143 ;main.c:2548: if (player.nbPillsLevel==125) {openDoors();player.nbPillsLevel++;}
   2CEC 3Ar1Bs00           8144 	ld	a,(#0x0019 + _player)
   2CEF D6 7D              8145 	sub	a,#0x7D
   2CF1 20 52              8146 	jr	NZ,00162$
   2CF3 C5                 8147 	push	bc
   2CF4 CDr75s25           8148 	call	_openDoors
   2CF7 C1                 8149 	pop	bc
   2CF8 3Ar1Bs00           8150 	ld	a,(#0x0019 + _player)
   2CFB 3C                 8151 	inc	a
   2CFC 32r1Bs00           8152 	ld	(#0x0019 + _player),a
   2CFF 18 44              8153 	jr	00162$
   2D01                    8154 00156$:
                           8155 ;main.c:2551: if (currentAbsoluteLevel==2)
   2D01 3Ar98s00           8156 	ld	a,(#_currentAbsoluteLevel + 0)
   2D04 D6 02              8157 	sub	a,#0x02
   2D06 20 15              8158 	jr	NZ,00153$
                           8159 ;main.c:2553: if (player.nbPillsLevel==131) {openDoors();player.nbPillsLevel++;}
   2D08 3Ar1Bs00           8160 	ld	a,(#0x0019 + _player)
   2D0B D6 83              8161 	sub	a,#0x83
   2D0D 20 36              8162 	jr	NZ,00162$
   2D0F C5                 8163 	push	bc
   2D10 CDr75s25           8164 	call	_openDoors
   2D13 C1                 8165 	pop	bc
   2D14 3Ar1Bs00           8166 	ld	a,(#0x0019 + _player)
   2D17 3C                 8167 	inc	a
   2D18 32r1Bs00           8168 	ld	(#0x0019 + _player),a
   2D1B 18 28              8169 	jr	00162$
   2D1D                    8170 00153$:
                           8171 ;main.c:2557: if (player.nbPillsLevel==135) {openDoors();player.nbPillsLevel++;}
   2D1D 3Ar1Bs00           8172 	ld	a,(#0x0019 + _player)
   2D20 D6 87              8173 	sub	a,#0x87
   2D22 20 21              8174 	jr	NZ,00162$
   2D24 C5                 8175 	push	bc
   2D25 CDr75s25           8176 	call	_openDoors
   2D28 C1                 8177 	pop	bc
   2D29 3Ar1Bs00           8178 	ld	a,(#0x0019 + _player)
   2D2C 3C                 8179 	inc	a
   2D2D 32r1Bs00           8180 	ld	(#0x0019 + _player),a
   2D30 18 13              8181 	jr	00162$
   2D32                    8182 00161$:
                           8183 ;main.c:2561: if (player.nbPillsLevel==135) {openDoors();player.nbPillsLevel++;}
   2D32 3Ar1Bs00           8184 	ld	a,(#0x0019 + _player)
   2D35 D6 87              8185 	sub	a,#0x87
   2D37 20 0C              8186 	jr	NZ,00162$
   2D39 C5                 8187 	push	bc
   2D3A CDr75s25           8188 	call	_openDoors
   2D3D C1                 8189 	pop	bc
   2D3E 3Ar1Bs00           8190 	ld	a,(#0x0019 + _player)
   2D41 3C                 8191 	inc	a
   2D42 32r1Bs00           8192 	ld	(#0x0019 + _player),a
   2D45                    8193 00162$:
                           8194 ;main.c:2563: if (player.score>nextLifeBonus) 
   2D45 21r19s00           8195 	ld	hl,#0x0017 + _player
   2D48 5E                 8196 	ld	e,(hl)
   2D49 23                 8197 	inc	hl
   2D4A 56                 8198 	ld	d,(hl)
   2D4B 21r36s01           8199 	ld	hl,#_nextLifeBonus
   2D4E 7E                 8200 	ld	a,(hl)
   2D4F 93                 8201 	sub	a,e
   2D50 23                 8202 	inc	hl
   2D51 7E                 8203 	ld	a,(hl)
   2D52 9A                 8204 	sbc	a,d
   2D53 30 52              8205 	jr	NC,00169$
                           8206 ;main.c:2565: if (player.nbLives<9) {player.nbLives++;}
   2D55 21r1Fs00           8207 	ld	hl,#0x001d + _player
   2D58 6E                 8208 	ld	l,(hl)
   2D59 7D                 8209 	ld	a,l
   2D5A D6 09              8210 	sub	a,#0x09
   2D5C E2r61s2D           8211 	jp	PO,00256$
   2D5F EE 80              8212 	xor	a,#0x80
   2D61                    8213 00256$:
   2D61 F2r69s2D           8214 	jp	P,00164$
   2D64 7D                 8215 	ld	a,l
   2D65 3C                 8216 	inc	a
   2D66 32r1Fs00           8217 	ld	(#0x001d + _player),a
   2D69                    8218 00164$:
                           8219 ;main.c:2567: if (nextLifeBonus<8000)  
   2D69 FD 21r36s01        8220 	ld	iy,#_nextLifeBonus
   2D6D FD 7E 00           8221 	ld	a,0 (iy)
   2D70 D6 40              8222 	sub	a,#0x40
   2D72 FD 7E 01           8223 	ld	a,1 (iy)
   2D75 DE 1F              8224 	sbc	a,#0x1F
   2D77 30 22              8225 	jr	NC,00166$
                           8226 ;main.c:2569: nextLifeBonus+=1500;renderPlayerNbLives();delay(1);
   2D79 21r36s01           8227 	ld	hl,#_nextLifeBonus
   2D7C 7E                 8228 	ld	a,(hl)
   2D7D C6 DC              8229 	add	a,#0xDC
   2D7F C5                 8230 	push	bc
   2D80 4F                 8231 	ld	c, a
   2D81 23                 8232 	inc	hl
   2D82 46                 8233 	ld	b, (hl)
   2D83 79                 8234 	ld	a, c
   2D84 2B                 8235 	dec	hl
   2D85 77                 8236 	ld	(hl), a
   2D86 78                 8237 	ld	a, b
   2D87 C1                 8238 	pop	bc
   2D88 CE 05              8239 	adc	a,#0x05
   2D8A 23                 8240 	inc	hl
   2D8B 77                 8241 	ld	(hl),a
   2D8C C5                 8242 	push	bc
   2D8D CDrCDs05           8243 	call	_renderPlayerNbLives
   2D90 21 01 00           8244 	ld	hl,#0x0001
   2D93 E5                 8245 	push	hl
   2D94 CDr00s00           8246 	call	_delay
   2D97 F1                 8247 	pop	af
   2D98 C1                 8248 	pop	bc
   2D99 18 0C              8249 	jr	00169$
   2D9B                    8250 00166$:
                           8251 ;main.c:2571: else nextLifeBonus=65200;
   2D9B FD 21r36s01        8252 	ld	iy,#_nextLifeBonus
   2D9F FD 36 00 B0        8253 	ld	0 (iy),#0xB0
   2DA3 FD 36 01 FE        8254 	ld	1 (iy),#0xFE
   2DA7                    8255 00169$:
                           8256 ;main.c:2573: if ((player.py==0) || (player.py==176)) {
   2DA7 21r03s00           8257 	ld	hl,#0x0001 + _player
   2DAA 6E                 8258 	ld	l,(hl)
   2DAB AF                 8259 	xor	a,a
   2DAC B5                 8260 	or	a,l
   2DAD 28 05              8261 	jr	Z,00170$
   2DAF 7D                 8262 	ld	a,l
   2DB0 D6 B0              8263 	sub	a,#0xB0
   2DB2 20 05              8264 	jr	NZ,00171$
   2DB4                    8265 00170$:
                           8266 ;main.c:2577: workflow=W_NEXTLEVEL;
   2DB4 21r99s00           8267 	ld	hl,#_workflow + 0
   2DB7 36 04              8268 	ld	(hl), #0x04
   2DB9                    8269 00171$:
                           8270 ;main.c:2581: if (keypad_1==10)
   2DB9 3Ar00s00           8271 	ld	a,(#_keypad_1 + 0)
   2DBC D6 0A              8272 	sub	a,#0x0A
   2DBE 20 41              8273 	jr	NZ,00180$
                           8274 ;main.c:2590: while (keypad_1==10) {delay(1);}
   2DC0                    8275 00173$:
   2DC0 3Ar00s00           8276 	ld	a,(#_keypad_1 + 0)
   2DC3 D6 0A              8277 	sub	a,#0x0A
   2DC5 20 0C              8278 	jr	NZ,00175$
   2DC7 C5                 8279 	push	bc
   2DC8 21 01 00           8280 	ld	hl,#0x0001
   2DCB E5                 8281 	push	hl
   2DCC CDr00s00           8282 	call	_delay
   2DCF F1                 8283 	pop	af
   2DD0 C1                 8284 	pop	bc
   2DD1 18 ED              8285 	jr	00173$
   2DD3                    8286 00175$:
                           8287 ;main.c:2591: delay(2);
   2DD3 C5                 8288 	push	bc
   2DD4 21 02 00           8289 	ld	hl,#0x0002
   2DD7 E5                 8290 	push	hl
   2DD8 CDr00s00           8291 	call	_delay
   2DDB F1                 8292 	pop	af
   2DDC C1                 8293 	pop	bc
                           8294 ;main.c:2592: while(keypad_1!=10) {delay(1);}
   2DDD                    8295 00176$:
   2DDD 3Ar00s00           8296 	ld	a,(#_keypad_1 + 0)
   2DE0 D6 0A              8297 	sub	a,#0x0A
   2DE2 28 0C              8298 	jr	Z,00178$
   2DE4 C5                 8299 	push	bc
   2DE5 21 01 00           8300 	ld	hl,#0x0001
   2DE8 E5                 8301 	push	hl
   2DE9 CDr00s00           8302 	call	_delay
   2DEC F1                 8303 	pop	af
   2DED C1                 8304 	pop	bc
   2DEE 18 ED              8305 	jr	00176$
   2DF0                    8306 00178$:
                           8307 ;main.c:2593: delay(2);
   2DF0 C5                 8308 	push	bc
   2DF1 21 02 00           8309 	ld	hl,#0x0002
   2DF4 E5                 8310 	push	hl
   2DF5 CDr00s00           8311 	call	_delay
   2DF8 21 05 00           8312 	ld	hl,#0x0005
   2DFB E3                 8313 	ex	(sp),hl
   2DFC CDr00s00           8314 	call	_delay
   2DFF F1                 8315 	pop	af
   2E00 C1                 8316 	pop	bc
   2E01                    8317 00180$:
                           8318 ;main.c:2599: renderAutoDoor();
   2E01 C5                 8319 	push	bc
   2E02 CDr50s08           8320 	call	_renderAutoDoor
   2E05 C1                 8321 	pop	bc
                           8322 ;main.c:2600: if (workflow==W_RETRY) break;
   2E06 FD 21r99s00        8323 	ld	iy,#_workflow
   2E0A FD 7E 00           8324 	ld	a,0 (iy)
   2E0D D6 06              8325 	sub	a,#0x06
   2E0F C8                 8326 	ret	Z
                           8327 ;main.c:2601: if (workflow==W_NEXTLEVEL) break;
   2E10 FD 7E 00           8328 	ld	a,0 (iy)
   2E13 D6 04              8329 	sub	a,#0x04
   2E15 C8                 8330 	ret	Z
                           8331 ;main.c:2602: delay(1);
   2E16 C5                 8332 	push	bc
   2E17 21 01 00           8333 	ld	hl,#0x0001
   2E1A E5                 8334 	push	hl
   2E1B CDr00s00           8335 	call	_delay
   2E1E F1                 8336 	pop	af
   2E1F C1                 8337 	pop	bc
   2E20 C3r7Cs2B           8338 	jp	00186$
   2E23                    8339 _gameLoop_end::
                           8340 ;main.c:2614: void menu()
                           8341 ;	---------------------------------
                           8342 ; Function menu
                           8343 ; ---------------------------------
   2E23                    8344 _menu_start::
   2E23                    8345 _menu:
                           8346 ;main.c:2616: disable_nmi();
   2E23 CDr00s00           8347 	call	_disable_nmi
                           8348 ;main.c:2617: center_string(10,"PRESS FIRE TO START");			
   2E26 21r44s2E           8349 	ld	hl,#__str_1
   2E29 E5                 8350 	push	hl
   2E2A 3E 0A              8351 	ld	a,#0x0A
   2E2C F5                 8352 	push	af
   2E2D 33                 8353 	inc	sp
   2E2E CDr00s00           8354 	call	_center_string
   2E31 F1                 8355 	pop	af
   2E32 33                 8356 	inc	sp
                           8357 ;main.c:2618: pause();
   2E33 CDr00s00           8358 	call	_pause
                           8359 ;main.c:2619: enable_nmi();
   2E36 CDr00s00           8360 	call	_enable_nmi
                           8361 ;main.c:2620: currentLevel = 1;
   2E39 21r97s00           8362 	ld	hl,#_currentLevel + 0
   2E3C 36 01              8363 	ld	(hl), #0x01
                           8364 ;main.c:2621: currentAbsoluteLevel=1;
   2E3E 21r98s00           8365 	ld	hl,#_currentAbsoluteLevel + 0
   2E41 36 01              8366 	ld	(hl), #0x01
   2E43 C9                 8367 	ret
   2E44                    8368 _menu_end::
   2E44                    8369 __str_1:
   2E44 50 52 45 53 53 20  8370 	.ascii "PRESS FIRE TO START"
        46 49 52 45 20 54
        4F 20 53 54 41 52
        54
   2E57 00                 8371 	.db 0x00
                           8372 ;main.c:2624: void resetSprites()
                           8373 ;	---------------------------------
                           8374 ; Function resetSprites
                           8375 ; ---------------------------------
   2E58                    8376 _resetSprites_start::
   2E58                    8377 _resetSprites:
                           8378 ;main.c:2627: for (i=0;i<32;i++)
   2E58 01 00 00           8379 	ld	bc,#0x0000
   2E5B                    8380 00101$:
   2E5B 79                 8381 	ld	a,c
   2E5C D6 20              8382 	sub	a,#0x20
   2E5E 78                 8383 	ld	a,b
   2E5F DE 00              8384 	sbc	a,#0x00
   2E61 E2r66s2E           8385 	jp	PO,00110$
   2E64 EE 80              8386 	xor	a,#0x80
   2E66                    8387 00110$:
   2E66 F0                 8388 	ret	P
                           8389 ;main.c:2628: sprites[i].y = 204;
   2E67 69                 8390 	ld	l,c
   2E68 60                 8391 	ld	h,b
   2E69 29                 8392 	add	hl,hl
   2E6A 29                 8393 	add	hl,hl
   2E6B 3Er00              8394 	ld	a,#<(_sprites)
   2E6D 85                 8395 	add	a,l
   2E6E 5F                 8396 	ld	e,a
   2E6F 3Es00              8397 	ld	a,#>(_sprites)
   2E71 8C                 8398 	adc	a,h
   2E72 57                 8399 	ld	d,a
   2E73 3E CC              8400 	ld	a,#0xCC
   2E75 12                 8401 	ld	(de),a
                           8402 ;main.c:2627: for (i=0;i<32;i++)
   2E76 03                 8403 	inc	bc
   2E77 18 E2              8404 	jr	00101$
   2E79                    8405 _resetSprites_end::
                           8406 ;main.c:2631: void playIntro()
                           8407 ;	---------------------------------
                           8408 ; Function playIntro
                           8409 ; ---------------------------------
   2E79                    8410 _playIntro_start::
   2E79                    8411 _playIntro:
                           8412 ;main.c:2637: cpt = 0;
   2E79 0E 00              8413 	ld	c,#0x00
                           8414 ;main.c:2639: disable_nmi();
   2E7B C5                 8415 	push	bc
   2E7C CDr00s00           8416 	call	_disable_nmi
   2E7F CDr00s00           8417 	call	_screen_off
   2E82 21r00s00           8418 	ld	hl,#_PATTERNRLE
   2E85 E5                 8419 	push	hl
   2E86 CDr00s00           8420 	call	_load_patternrle
   2E89 F1                 8421 	pop	af
   2E8A CDr00s00           8422 	call	_duplicate_pattern
   2E8D 21 00 18           8423 	ld	hl,#0x1800
   2E90 E5                 8424 	push	hl
   2E91 21r00s00           8425 	ld	hl,#_NAMERLE_INTRO
   2E94 E5                 8426 	push	hl
   2E95 CDr00s00           8427 	call	_rle2vram
   2E98 F1                 8428 	pop	af
   2E99 21 00 20           8429 	ld	hl,#0x2000
   2E9C E3                 8430 	ex	(sp),hl
   2E9D 21r00s00           8431 	ld	hl,#_COLORRLE
   2EA0 E5                 8432 	push	hl
   2EA1 CDr00s00           8433 	call	_rle2vram
   2EA4 F1                 8434 	pop	af
   2EA5 21 00 28           8435 	ld	hl,#0x2800
   2EA8 E3                 8436 	ex	(sp),hl
   2EA9 21r00s00           8437 	ld	hl,#_COLORRLE
   2EAC E5                 8438 	push	hl
   2EAD CDr00s00           8439 	call	_rle2vram
   2EB0 F1                 8440 	pop	af
   2EB1 21 00 30           8441 	ld	hl,#0x3000
   2EB4 E3                 8442 	ex	(sp),hl
   2EB5 21r00s00           8443 	ld	hl,#_COLORRLE
   2EB8 E5                 8444 	push	hl
   2EB9 CDr00s00           8445 	call	_rle2vram
   2EBC F1                 8446 	pop	af
   2EBD F1                 8447 	pop	af
   2EBE CDr00s00           8448 	call	_screen_on
   2EC1 CDr00s00           8449 	call	_enable_nmi
   2EC4 CDr2Cs02           8450 	call	_stopmusic
   2EC7 3E 00              8451 	ld	a,#0x00
   2EC9 F5                 8452 	push	af
   2ECA 33                 8453 	inc	sp
   2ECB 21r00s00           8454 	ld	hl,#_music_nextLevel
   2ECE E5                 8455 	push	hl
   2ECF CDr71s02           8456 	call	_startmusic
   2ED2 F1                 8457 	pop	af
   2ED3 33                 8458 	inc	sp
   2ED4 C1                 8459 	pop	bc
                           8460 ;main.c:2656: for (x=0;x<22;x++)
   2ED5 06 00              8461 	ld	b,#0x00
   2ED7                    8462 00115$:
   2ED7 78                 8463 	ld	a,b
   2ED8 D6 16              8464 	sub	a,#0x16
   2EDA D0                 8465 	ret	NC
                           8466 ;main.c:2658: disable_nmi();		
   2EDB C5                 8467 	push	bc
   2EDC CDr00s00           8468 	call	_disable_nmi
   2EDF C1                 8469 	pop	bc
                           8470 ;main.c:2659: if (x>0) put_frame(&frm[2],x-1,y,4,2);
   2EE0 AF                 8471 	xor	a,a
   2EE1 B0                 8472 	or	a,b
   2EE2 28 16              8473 	jr	Z,00102$
   2EE4 78                 8474 	ld	a,b
   2EE5 3D                 8475 	dec	a
   2EE6 5F                 8476 	ld	e,a
   2EE7 C5                 8477 	push	bc
   2EE8 21 04 02           8478 	ld	hl,#0x0204
   2EEB E5                 8479 	push	hl
   2EEC 16 15              8480 	ld	d,#0x15
   2EEE D5                 8481 	push	de
   2EEF 21rAFs00           8482 	ld	hl,#0x0010 + _frm
   2EF2 E5                 8483 	push	hl
   2EF3 CDr00s00           8484 	call	_put_frame
   2EF6 F1                 8485 	pop	af
   2EF7 F1                 8486 	pop	af
   2EF8 F1                 8487 	pop	af
   2EF9 C1                 8488 	pop	bc
   2EFA                    8489 00102$:
                           8490 ;main.c:2660: if (x==5)
   2EFA 78                 8491 	ld	a,b
                           8492 ;main.c:2662: for (i=0;i<4;i++)
   2EFB D6 05              8493 	sub	a,#0x05
   2EFD 20 54              8494 	jr	NZ,00104$
   2EFF 5F                 8495 	ld	e,a
   2F00                    8496 00111$:
   2F00 7B                 8497 	ld	a,e
   2F01 D6 04              8498 	sub	a,#0x04
   2F03 30 1B              8499 	jr	NC,00114$
                           8500 ;main.c:2663: for (j=20;j<24;j++)
   2F05 16 14              8501 	ld	d,#0x14
   2F07                    8502 00107$:
   2F07 7A                 8503 	ld	a,d
   2F08 D6 18              8504 	sub	a,#0x18
   2F0A 30 11              8505 	jr	NC,00113$
                           8506 ;main.c:2664: put_char(i,j,0);
   2F0C C5                 8507 	push	bc
   2F0D D5                 8508 	push	de
   2F0E 3E 00              8509 	ld	a,#0x00
   2F10 F5                 8510 	push	af
   2F11 33                 8511 	inc	sp
   2F12 D5                 8512 	push	de
   2F13 CDr00s00           8513 	call	_put_char
   2F16 F1                 8514 	pop	af
   2F17 33                 8515 	inc	sp
   2F18 D1                 8516 	pop	de
   2F19 C1                 8517 	pop	bc
                           8518 ;main.c:2663: for (j=20;j<24;j++)
   2F1A 14                 8519 	inc	d
   2F1B 18 EA              8520 	jr	00107$
   2F1D                    8521 00113$:
                           8522 ;main.c:2662: for (i=0;i<4;i++)
   2F1D 1C                 8523 	inc	e
   2F1E 18 E0              8524 	jr	00111$
   2F20                    8525 00114$:
                           8526 ;main.c:2666: put_char(4,20,193);
   2F20 C5                 8527 	push	bc
   2F21 21 14 C1           8528 	ld	hl,#0xC114
   2F24 E5                 8529 	push	hl
   2F25 3E 04              8530 	ld	a,#0x04
   2F27 F5                 8531 	push	af
   2F28 33                 8532 	inc	sp
   2F29 CDr00s00           8533 	call	_put_char
   2F2C 33                 8534 	inc	sp
   2F2D 21 15 C1           8535 	ld	hl,#0xC115
   2F30 E3                 8536 	ex	(sp),hl
   2F31 3E 04              8537 	ld	a,#0x04
   2F33 F5                 8538 	push	af
   2F34 33                 8539 	inc	sp
   2F35 CDr00s00           8540 	call	_put_char
   2F38 33                 8541 	inc	sp
   2F39 21 16 C1           8542 	ld	hl,#0xC116
   2F3C E3                 8543 	ex	(sp),hl
   2F3D 3E 04              8544 	ld	a,#0x04
   2F3F F5                 8545 	push	af
   2F40 33                 8546 	inc	sp
   2F41 CDr00s00           8547 	call	_put_char
   2F44 33                 8548 	inc	sp
   2F45 21 17 03           8549 	ld	hl,#0x0317
   2F48 E3                 8550 	ex	(sp),hl
   2F49 3E 04              8551 	ld	a,#0x04
   2F4B F5                 8552 	push	af
   2F4C 33                 8553 	inc	sp
   2F4D CDr00s00           8554 	call	_put_char
   2F50 F1                 8555 	pop	af
   2F51 33                 8556 	inc	sp
   2F52 C1                 8557 	pop	bc
   2F53                    8558 00104$:
                           8559 ;main.c:2672: put_frame(&frm[cpt],x,y,4,2);
   2F53 79                 8560 	ld	a,c
   2F54 07                 8561 	rlca
   2F55 07                 8562 	rlca
   2F56 07                 8563 	rlca
   2F57 E6 F8              8564 	and	a,#0xF8
   2F59 C6r9F              8565 	add	a,#<(_frm)
   2F5B 5F                 8566 	ld	e,a
   2F5C 3Es00              8567 	ld	a,#>(_frm)
   2F5E CE 00              8568 	adc	a,#0x00
   2F60 57                 8569 	ld	d,a
   2F61 C5                 8570 	push	bc
   2F62 21 04 02           8571 	ld	hl,#0x0204
   2F65 E5                 8572 	push	hl
   2F66 3E 15              8573 	ld	a,#0x15
   2F68 F5                 8574 	push	af
   2F69 33                 8575 	inc	sp
   2F6A C5                 8576 	push	bc
   2F6B 33                 8577 	inc	sp
   2F6C D5                 8578 	push	de
   2F6D CDr00s00           8579 	call	_put_frame
   2F70 F1                 8580 	pop	af
   2F71 F1                 8581 	pop	af
   2F72 F1                 8582 	pop	af
   2F73 CDr00s00           8583 	call	_enable_nmi
   2F76 21 0F 00           8584 	ld	hl,#0x000F
   2F79 E5                 8585 	push	hl
   2F7A CDr00s00           8586 	call	_delay
   2F7D F1                 8587 	pop	af
   2F7E C1                 8588 	pop	bc
                           8589 ;main.c:2675: cpt++;
   2F7F 0C                 8590 	inc	c
                           8591 ;main.c:2676: if (cpt>1) cpt = 0;
   2F80 3E 01              8592 	ld	a,#0x01
   2F82 91                 8593 	sub	a,c
   2F83 30 02              8594 	jr	NC,00117$
   2F85 0E 00              8595 	ld	c,#0x00
   2F87                    8596 00117$:
                           8597 ;main.c:2656: for (x=0;x<22;x++)
   2F87 04                 8598 	inc	b
   2F88 C3rD7s2E           8599 	jp	00115$
   2F8B                    8600 _playIntro_end::
                           8601 ;main.c:2680: void eraseScreen(void)
                           8602 ;	---------------------------------
                           8603 ; Function eraseScreen
                           8604 ; ---------------------------------
   2F8B                    8605 _eraseScreen_start::
   2F8B                    8606 _eraseScreen:
                           8607 ;main.c:2684: for (i=0;i<32;i++)
   2F8B 0E 00              8608 	ld	c,#0x00
   2F8D                    8609 00105$:
   2F8D 79                 8610 	ld	a,c
   2F8E D6 20              8611 	sub	a,#0x20
   2F90 E2r95s2F           8612 	jp	PO,00117$
   2F93 EE 80              8613 	xor	a,#0x80
   2F95                    8614 00117$:
   2F95 F0                 8615 	ret	P
                           8616 ;main.c:2685: for (j=0;j<24;j++)
   2F96 06 00              8617 	ld	b,#0x00
   2F98                    8618 00101$:
   2F98 78                 8619 	ld	a,b
   2F99 D6 18              8620 	sub	a,#0x18
   2F9B E2rA0s2F           8621 	jp	PO,00118$
   2F9E EE 80              8622 	xor	a,#0x80
   2FA0                    8623 00118$:
   2FA0 F2rB6s2F           8624 	jp	P,00107$
                           8625 ;main.c:2686: put_char(i,j,32);
   2FA3 C5                 8626 	push	bc
   2FA4 3E 20              8627 	ld	a,#0x20
   2FA6 F5                 8628 	push	af
   2FA7 33                 8629 	inc	sp
   2FA8 C5                 8630 	push	bc
   2FA9 33                 8631 	inc	sp
   2FAA 79                 8632 	ld	a,c
   2FAB F5                 8633 	push	af
   2FAC 33                 8634 	inc	sp
   2FAD CDr00s00           8635 	call	_put_char
   2FB0 F1                 8636 	pop	af
   2FB1 33                 8637 	inc	sp
   2FB2 C1                 8638 	pop	bc
                           8639 ;main.c:2685: for (j=0;j<24;j++)
   2FB3 04                 8640 	inc	b
   2FB4 18 E2              8641 	jr	00101$
   2FB6                    8642 00107$:
                           8643 ;main.c:2684: for (i=0;i<32;i++)
   2FB6 0C                 8644 	inc	c
   2FB7 18 D4              8645 	jr	00105$
   2FB9                    8646 _eraseScreen_end::
                           8647 ;main.c:2689: byte comptePills()
                           8648 ;	---------------------------------
                           8649 ; Function comptePills
                           8650 ; ---------------------------------
   2FB9                    8651 _comptePills_start::
   2FB9                    8652 _comptePills:
                           8653 ;main.c:2693: c=0;
                           8654 ;main.c:2695: for (x=0;x<32;x++)
   2FB9 01 00 00           8655 	ld	bc,#0x0000
   2FBC                    8656 00107$:
   2FBC 78                 8657 	ld	a,b
   2FBD D6 20              8658 	sub	a,#0x20
   2FBF 30 2D              8659 	jr	NC,00110$
                           8660 ;main.c:2696: for (y=0;y<24;y++)
   2FC1 59                 8661 	ld	e,c
   2FC2 16 00              8662 	ld	d,#0x00
   2FC4                    8663 00103$:
   2FC4 7A                 8664 	ld	a,d
   2FC5 D6 18              8665 	sub	a,#0x18
   2FC7 30 21              8666 	jr	NC,00118$
                           8667 ;main.c:2698: delay(1);
   2FC9 C5                 8668 	push	bc
   2FCA D5                 8669 	push	de
   2FCB 21 01 00           8670 	ld	hl,#0x0001
   2FCE E5                 8671 	push	hl
   2FCF CDr00s00           8672 	call	_delay
   2FD2 F1                 8673 	pop	af
   2FD3 D1                 8674 	pop	de
   2FD4 C1                 8675 	pop	bc
                           8676 ;main.c:2699: if (get_char(x,y)==CHAR_PILL) c++;
   2FD5 C5                 8677 	push	bc
   2FD6 D5                 8678 	push	de
   2FD7 D5                 8679 	push	de
   2FD8 33                 8680 	inc	sp
   2FD9 C5                 8681 	push	bc
   2FDA 33                 8682 	inc	sp
   2FDB CDr00s00           8683 	call	_get_char
   2FDE F1                 8684 	pop	af
   2FDF D1                 8685 	pop	de
   2FE0 C1                 8686 	pop	bc
   2FE1 7D                 8687 	ld	a,l
   2FE2 D6 3B              8688 	sub	a,#0x3B
   2FE4 20 01              8689 	jr	NZ,00105$
   2FE6 1C                 8690 	inc	e
   2FE7                    8691 00105$:
                           8692 ;main.c:2696: for (y=0;y<24;y++)
   2FE7 14                 8693 	inc	d
   2FE8 18 DA              8694 	jr	00103$
   2FEA                    8695 00118$:
   2FEA 4B                 8696 	ld	c,e
                           8697 ;main.c:2695: for (x=0;x<32;x++)
   2FEB 04                 8698 	inc	b
   2FEC 18 CE              8699 	jr	00107$
   2FEE                    8700 00110$:
                           8701 ;main.c:2702: return c;
   2FEE 69                 8702 	ld	l,c
   2FEF C9                 8703 	ret
   2FF0                    8704 _comptePills_end::
                           8705 ;main.c:2705: void main(void)
                           8706 ;	---------------------------------
                           8707 ; Function main
                           8708 ; ---------------------------------
   2FF0                    8709 _main_start::
   2FF0                    8710 _main:
   2FF0 DD E5              8711 	push	ix
   2FF2 DD 21 00 00        8712 	ld	ix,#0
   2FF6 DD 39              8713 	add	ix,sp
   2FF8 F5                 8714 	push	af
   2FF9 F5                 8715 	push	af
                           8716 ;main.c:2710: j=0;odd=0;currentFlicker=0;
   2FFA 21r1Bs01           8717 	ld	hl,#_odd + 0
   2FFD 36 00              8718 	ld	(hl), #0x00
   2FFF 21r9As00           8719 	ld	hl,#_currentFlicker + 0
   3002 36 00              8720 	ld	(hl), #0x00
                           8721 ;main.c:2711: hiscore = 200;
   3004 FD 21r00s00        8722 	ld	iy,#_hiscore
   3008 FD 36 00 C8        8723 	ld	0 (iy),#0xC8
   300C FD 36 01 00        8724 	ld	1 (iy),#0x00
                           8725 ;main.c:2712: workflow = W_SPLASH0;
   3010 21r99s00           8726 	ld	hl,#_workflow + 0
   3013 36 00              8727 	ld	(hl), #0x00
                           8728 ;main.c:2713: screen_mode_2_bitmap();
   3015 CDr00s00           8729 	call	_screen_mode_2_bitmap
                           8730 ;main.c:2714: activateNmi=NOK;
   3018 21r35s01           8731 	ld	hl,#_activateNmi + 0
   301B 36 01              8732 	ld	(hl), #0x01
                           8733 ;main.c:2715: extend=0;
   301D 21r8As00           8734 	ld	hl,#_extend + 0
   3020 36 00              8735 	ld	(hl), #0x00
                           8736 ;main.c:2716: for (i=0;i<32;i++) sprites[i].y = 204;
   3022 01 00 00           8737 	ld	bc,#0x0000
   3025                    8738 00166$:
   3025 79                 8739 	ld	a,c
   3026 D6 20              8740 	sub	a,#0x20
   3028 78                 8741 	ld	a,b
   3029 DE 00              8742 	sbc	a,#0x00
   302B 30 12              8743 	jr	NC,00164$
   302D 69                 8744 	ld	l,c
   302E 60                 8745 	ld	h,b
   302F 29                 8746 	add	hl,hl
   3030 29                 8747 	add	hl,hl
   3031 3Er00              8748 	ld	a,#<(_sprites)
   3033 85                 8749 	add	a,l
   3034 5F                 8750 	ld	e,a
   3035 3Es00              8751 	ld	a,#>(_sprites)
   3037 8C                 8752 	adc	a,h
   3038 57                 8753 	ld	d,a
   3039 3E CC              8754 	ld	a,#0xCC
   303B 12                 8755 	ld	(de),a
   303C 03                 8756 	inc	bc
   303D 18 E6              8757 	jr	00166$
                           8758 ;main.c:2720: while (1)
   303F                    8759 00164$:
                           8760 ;main.c:2722: if (workflow==W_SPLASH0)
   303F AF                 8761 	xor	a,a
   3040 21r99s00           8762 	ld	hl,#_workflow + 0
   3043 B6                 8763 	or	a,(hl)
   3044 C2r3Cs31           8764 	jp	NZ,00161$
                           8765 ;main.c:2725: disable_nmi();
   3047 CDr00s00           8766 	call	_disable_nmi
                           8767 ;main.c:2726: screen_off();
   304A CDr00s00           8768 	call	_screen_off
                           8769 ;main.c:2727: rle2vram(BIOS0NAMERLE,chrtab);	
   304D 21 00 18           8770 	ld	hl,#0x1800
   3050 E5                 8771 	push	hl
   3051 21r00s00           8772 	ld	hl,#_BIOS0NAMERLE
   3054 E5                 8773 	push	hl
   3055 CDr00s00           8774 	call	_rle2vram
   3058 F1                 8775 	pop	af
                           8776 ;main.c:2729: load_patternrle(BIOS0PATTERNRLE);
   3059 21r00s00           8777 	ld	hl,#_BIOS0PATTERNRLE
   305C E3                 8778 	ex	(sp),hl
   305D CDr00s00           8779 	call	_load_patternrle
   3060 F1                 8780 	pop	af
                           8781 ;main.c:2730: duplicate_pattern();
   3061 CDr00s00           8782 	call	_duplicate_pattern
                           8783 ;main.c:2732: screen_on();
   3064 CDr00s00           8784 	call	_screen_on
                           8785 ;main.c:2733: for(i=0;i<4;i++)
   3067 DD 36 FE 00        8786 	ld	-2 (ix),#0x00
   306B DD 36 FF 00        8787 	ld	-1 (ix),#0x00
   306F                    8788 00174$:
   306F DD 7E FE           8789 	ld	a,-2 (ix)
   3072 D6 04              8790 	sub	a,#0x04
   3074 DD 7E FF           8791 	ld	a,-1 (ix)
   3077 DE 00              8792 	sbc	a,#0x00
   3079 30 71              8793 	jr	NC,00177$
                           8794 ;main.c:2735: for (j=0;j<6;j++)
   307B DD 36 FC 00        8795 	ld	-4 (ix),#0x00
   307F DD 36 FD 00        8796 	ld	-3 (ix),#0x00
   3083                    8797 00170$:
   3083 DD 7E FC           8798 	ld	a,-4 (ix)
   3086 D6 06              8799 	sub	a,#0x06
   3088 DD 7E FD           8800 	ld	a,-3 (ix)
   308B DE 00              8801 	sbc	a,#0x00
   308D 30 52              8802 	jr	NC,00176$
                           8803 ;main.c:2737: rle2vram(BIOS0COLORS[j],coltab);
   308F DD 4E FC           8804 	ld	c,-4 (ix)
   3092 DD 46 FD           8805 	ld	b,-3 (ix)
   3095 CB 21              8806 	sla	c
   3097 CB 10              8807 	rl	b
   3099 21r00s00           8808 	ld	hl,#_BIOS0COLORS
   309C 09                 8809 	add	hl,bc
   309D 5E                 8810 	ld	e,(hl)
   309E 23                 8811 	inc	hl
   309F 56                 8812 	ld	d,(hl)
   30A0 C5                 8813 	push	bc
   30A1 21 00 20           8814 	ld	hl,#0x2000
   30A4 E5                 8815 	push	hl
   30A5 D5                 8816 	push	de
   30A6 CDr00s00           8817 	call	_rle2vram
   30A9 F1                 8818 	pop	af
   30AA F1                 8819 	pop	af
   30AB C1                 8820 	pop	bc
                           8821 ;main.c:2738: rle2vram(BIOS0COLORS[j],coltab+2048);
   30AC 21r00s00           8822 	ld	hl,#_BIOS0COLORS
   30AF 09                 8823 	add	hl,bc
   30B0 5E                 8824 	ld	e,(hl)
   30B1 23                 8825 	inc	hl
   30B2 56                 8826 	ld	d,(hl)
   30B3 C5                 8827 	push	bc
   30B4 21 00 28           8828 	ld	hl,#0x2800
   30B7 E5                 8829 	push	hl
   30B8 D5                 8830 	push	de
   30B9 CDr00s00           8831 	call	_rle2vram
   30BC F1                 8832 	pop	af
   30BD F1                 8833 	pop	af
   30BE C1                 8834 	pop	bc
                           8835 ;main.c:2739: rle2vram(BIOS0COLORS[j],coltab+4096);
   30BF 21r00s00           8836 	ld	hl,#_BIOS0COLORS
   30C2 09                 8837 	add	hl,bc
   30C3 4E                 8838 	ld	c,(hl)
   30C4 23                 8839 	inc	hl
   30C5 46                 8840 	ld	b,(hl)
   30C6 21 00 30           8841 	ld	hl,#0x3000
   30C9 E5                 8842 	push	hl
   30CA C5                 8843 	push	bc
   30CB CDr00s00           8844 	call	_rle2vram
   30CE F1                 8845 	pop	af
                           8846 ;main.c:2740: delay(5);
   30CF 21 05 00           8847 	ld	hl,#0x0005
   30D2 E3                 8848 	ex	(sp),hl
   30D3 CDr00s00           8849 	call	_delay
   30D6 F1                 8850 	pop	af
                           8851 ;main.c:2735: for (j=0;j<6;j++)
   30D7 DD 34 FC           8852 	inc	-4 (ix)
   30DA 20 A7              8853 	jr	NZ,00170$
   30DC DD 34 FD           8854 	inc	-3 (ix)
   30DF 18 A2              8855 	jr	00170$
   30E1                    8856 00176$:
                           8857 ;main.c:2733: for(i=0;i<4;i++)
   30E1 DD 34 FE           8858 	inc	-2 (ix)
   30E4 20 89              8859 	jr	NZ,00174$
   30E6 DD 34 FF           8860 	inc	-1 (ix)
   30E9 C3r6Fs30           8861 	jp	00174$
   30EC                    8862 00177$:
                           8863 ;main.c:2743: screen_off();
   30EC CDr00s00           8864 	call	_screen_off
                           8865 ;main.c:2744: rle2vram(BIOS1NAMERLE,chrtab);	
   30EF 21 00 18           8866 	ld	hl,#0x1800
   30F2 E5                 8867 	push	hl
   30F3 21r00s00           8868 	ld	hl,#_BIOS1NAMERLE
   30F6 E5                 8869 	push	hl
   30F7 CDr00s00           8870 	call	_rle2vram
   30FA F1                 8871 	pop	af
                           8872 ;main.c:2746: load_patternrle(BIOS1PATTERNRLE);
   30FB 21r00s00           8873 	ld	hl,#_BIOS1PATTERNRLE
   30FE E3                 8874 	ex	(sp),hl
   30FF CDr00s00           8875 	call	_load_patternrle
   3102 F1                 8876 	pop	af
                           8877 ;main.c:2747: duplicate_pattern();
   3103 CDr00s00           8878 	call	_duplicate_pattern
                           8879 ;main.c:2750: rle2vram(BIOS1COLORRLE,coltab);
   3106 21 00 20           8880 	ld	hl,#0x2000
   3109 E5                 8881 	push	hl
   310A 21r00s00           8882 	ld	hl,#_BIOS1COLORRLE
   310D E5                 8883 	push	hl
   310E CDr00s00           8884 	call	_rle2vram
   3111 F1                 8885 	pop	af
                           8886 ;main.c:2751: rle2vram(BIOS1COLORRLE,coltab+2048);
   3112 21 00 28           8887 	ld	hl,#0x2800
   3115 E3                 8888 	ex	(sp),hl
   3116 21r00s00           8889 	ld	hl,#_BIOS1COLORRLE
   3119 E5                 8890 	push	hl
   311A CDr00s00           8891 	call	_rle2vram
   311D F1                 8892 	pop	af
                           8893 ;main.c:2752: rle2vram(BIOS1COLORRLE,coltab+4096);	
   311E 21 00 30           8894 	ld	hl,#0x3000
   3121 E3                 8895 	ex	(sp),hl
   3122 21r00s00           8896 	ld	hl,#_BIOS1COLORRLE
   3125 E5                 8897 	push	hl
   3126 CDr00s00           8898 	call	_rle2vram
   3129 F1                 8899 	pop	af
   312A F1                 8900 	pop	af
                           8901 ;main.c:2753: screen_on();
   312B CDr00s00           8902 	call	_screen_on
                           8903 ;main.c:2754: enable_nmi();
   312E CDr00s00           8904 	call	_enable_nmi
                           8905 ;main.c:2755: pause();
   3131 CDr00s00           8906 	call	_pause
                           8907 ;main.c:2756: workflow=W_MENU;
   3134 21r99s00           8908 	ld	hl,#_workflow + 0
   3137 36 02              8909 	ld	(hl), #0x02
   3139 C3r3Fs30           8910 	jp	00164$
   313C                    8911 00161$:
                           8912 ;main.c:2759: if (workflow==W_MENU)
   313C 3Ar99s00           8913 	ld	a,(#_workflow + 0)
   313F D6 02              8914 	sub	a,#0x02
   3141 C2rC8s33           8915 	jp	NZ,00158$
                           8916 ;main.c:2761: activateNmi=NOK;
   3144 21r35s01           8917 	ld	hl,#_activateNmi + 0
   3147 36 01              8918 	ld	(hl), #0x01
                           8919 ;main.c:2762: resetSprites();
   3149 CDr58s2E           8920 	call	_resetSprites
                           8921 ;main.c:2763: updatesprites(0,6);
   314C 21 00 06           8922 	ld	hl,#0x0600
   314F E5                 8923 	push	hl
   3150 CDr00s00           8924 	call	_updatesprites
                           8925 ;main.c:2764: delay(1);
   3153 21 01 00           8926 	ld	hl,#0x0001
   3156 E3                 8927 	ex	(sp),hl
   3157 CDr00s00           8928 	call	_delay
   315A F1                 8929 	pop	af
                           8930 ;main.c:2765: screen_off();
   315B CDr00s00           8931 	call	_screen_off
                           8932 ;main.c:2766: rle2vram(TITLENAMERLE,chrtab);	
   315E 21 00 18           8933 	ld	hl,#0x1800
   3161 E5                 8934 	push	hl
   3162 21r00s00           8935 	ld	hl,#_TITLENAMERLE
   3165 E5                 8936 	push	hl
   3166 CDr00s00           8937 	call	_rle2vram
   3169 F1                 8938 	pop	af
                           8939 ;main.c:2768: load_patternrle(TITLEPATTERNRLE);
   316A 21r00s00           8940 	ld	hl,#_TITLEPATTERNRLE
   316D E3                 8941 	ex	(sp),hl
   316E CDr00s00           8942 	call	_load_patternrle
   3171 F1                 8943 	pop	af
                           8944 ;main.c:2769: duplicate_pattern();
   3172 CDr00s00           8945 	call	_duplicate_pattern
                           8946 ;main.c:2772: rle2vram(TITLECOLORRLE,coltab);
   3175 21 00 20           8947 	ld	hl,#0x2000
   3178 E5                 8948 	push	hl
   3179 21r00s00           8949 	ld	hl,#_TITLECOLORRLE
   317C E5                 8950 	push	hl
   317D CDr00s00           8951 	call	_rle2vram
   3180 F1                 8952 	pop	af
                           8953 ;main.c:2773: rle2vram(TITLECOLORRLE,coltab+2048);
   3181 21 00 28           8954 	ld	hl,#0x2800
   3184 E3                 8955 	ex	(sp),hl
   3185 21r00s00           8956 	ld	hl,#_TITLECOLORRLE
   3188 E5                 8957 	push	hl
   3189 CDr00s00           8958 	call	_rle2vram
   318C F1                 8959 	pop	af
                           8960 ;main.c:2774: rle2vram(TITLECOLORRLE,coltab+4096);	
   318D 21 00 30           8961 	ld	hl,#0x3000
   3190 E3                 8962 	ex	(sp),hl
   3191 21r00s00           8963 	ld	hl,#_TITLECOLORRLE
   3194 E5                 8964 	push	hl
   3195 CDr00s00           8965 	call	_rle2vram
   3198 F1                 8966 	pop	af
                           8967 ;main.c:2775: print_at(5,1,"TO SELECT GAME OPTION,");
   3199 21rC5s37           8968 	ld	hl,#__str_2
   319C E3                 8969 	ex	(sp),hl
   319D 21 05 01           8970 	ld	hl,#0x0105
   31A0 E5                 8971 	push	hl
   31A1 CDr00s00           8972 	call	_print_at
   31A4 F1                 8973 	pop	af
                           8974 ;main.c:2776: print_at(5,3,"PRESS BUTTON ON KEYPAD.");
   31A5 21rDCs37           8975 	ld	hl,#__str_3
   31A8 E3                 8976 	ex	(sp),hl
   31A9 21 05 03           8977 	ld	hl,#0x0305
   31AC E5                 8978 	push	hl
   31AD CDr00s00           8979 	call	_print_at
   31B0 F1                 8980 	pop	af
                           8981 ;main.c:2778: print_at(1,7,"1 = SKILL 1/ONE PLAYER/CLASSIC");
   31B1 21rF4s37           8982 	ld	hl,#__str_4
   31B4 E3                 8983 	ex	(sp),hl
   31B5 21 01 07           8984 	ld	hl,#0x0701
   31B8 E5                 8985 	push	hl
   31B9 CDr00s00           8986 	call	_print_at
   31BC F1                 8987 	pop	af
                           8988 ;main.c:2779: print_at(1,9,"2 = SKILL 2/ONE PLAYER/CLASSIC");
   31BD 21r13s38           8989 	ld	hl,#__str_5
   31C0 E3                 8990 	ex	(sp),hl
   31C1 21 01 09           8991 	ld	hl,#0x0901
   31C4 E5                 8992 	push	hl
   31C5 CDr00s00           8993 	call	_print_at
   31C8 F1                 8994 	pop	af
                           8995 ;main.c:2780: print_at(1,11,"3 = SKILL 3/ONE PLAYER/CLASSIC");
   31C9 21r32s38           8996 	ld	hl,#__str_6
   31CC E3                 8997 	ex	(sp),hl
   31CD 21 01 0B           8998 	ld	hl,#0x0B01
   31D0 E5                 8999 	push	hl
   31D1 CDr00s00           9000 	call	_print_at
   31D4 F1                 9001 	pop	af
                           9002 ;main.c:2781: print_at(1,13,"4 = SKILL 4/ONE PLAYER/CLASSIC");
   31D5 21r51s38           9003 	ld	hl,#__str_7
   31D8 E3                 9004 	ex	(sp),hl
   31D9 21 01 0D           9005 	ld	hl,#0x0D01
   31DC E5                 9006 	push	hl
   31DD CDr00s00           9007 	call	_print_at
   31E0 F1                 9008 	pop	af
                           9009 ;main.c:2783: print_at(1,15,"5 = SKILL 1/ONE PLAYER/EXTEND");
   31E1 21r70s38           9010 	ld	hl,#__str_8
   31E4 E3                 9011 	ex	(sp),hl
   31E5 21 01 0F           9012 	ld	hl,#0x0F01
   31E8 E5                 9013 	push	hl
   31E9 CDr00s00           9014 	call	_print_at
   31EC F1                 9015 	pop	af
                           9016 ;main.c:2784: print_at(1,17,"6 = SKILL 2/ONE PLAYER/EXTEND");
   31ED 21r8Es38           9017 	ld	hl,#__str_9
   31F0 E3                 9018 	ex	(sp),hl
   31F1 21 01 11           9019 	ld	hl,#0x1101
   31F4 E5                 9020 	push	hl
   31F5 CDr00s00           9021 	call	_print_at
   31F8 F1                 9022 	pop	af
                           9023 ;main.c:2785: print_at(1,19,"7 = SKILL 3/ONE PLAYER/EXTEND");
   31F9 21rACs38           9024 	ld	hl,#__str_10
   31FC E3                 9025 	ex	(sp),hl
   31FD 21 01 13           9026 	ld	hl,#0x1301
   3200 E5                 9027 	push	hl
   3201 CDr00s00           9028 	call	_print_at
   3204 F1                 9029 	pop	af
                           9030 ;main.c:2786: print_at(1,21,"8 = SKILL 4/ONE PLAYER/EXTEND");
   3205 21rCAs38           9031 	ld	hl,#__str_11
   3208 E3                 9032 	ex	(sp),hl
   3209 21 01 15           9033 	ld	hl,#0x1501
   320C E5                 9034 	push	hl
   320D CDr00s00           9035 	call	_print_at
   3210 F1                 9036 	pop	af
   3211 F1                 9037 	pop	af
                           9038 ;main.c:2788: screen_on();
   3212 CDr00s00           9039 	call	_screen_on
                           9040 ;main.c:2790: enable_nmi();
   3215 CDr00s00           9041 	call	_enable_nmi
                           9042 ;main.c:2792: while(1)
   3218                    9043 00118$:
                           9044 ;main.c:2794: if (keypad_1==1) {currentLevel = 1;extend=0;break;}
   3218 3Ar00s00           9045 	ld	a,(#_keypad_1 + 0)
   321B D6 01              9046 	sub	a,#0x01
   321D 20 0D              9047 	jr	NZ,00102$
   321F 21r97s00           9048 	ld	hl,#_currentLevel + 0
   3222 36 01              9049 	ld	(hl), #0x01
   3224 21r8As00           9050 	ld	hl,#_extend + 0
   3227 36 00              9051 	ld	(hl), #0x00
   3229 C3rBAs32           9052 	jp	00119$
   322C                    9053 00102$:
                           9054 ;main.c:2795: if (keypad_1==2) {currentLevel = 5;extend=0;break;}
   322C 3Ar00s00           9055 	ld	a,(#_keypad_1 + 0)
   322F D6 02              9056 	sub	a,#0x02
   3231 20 0D              9057 	jr	NZ,00104$
   3233 21r97s00           9058 	ld	hl,#_currentLevel + 0
   3236 36 05              9059 	ld	(hl), #0x05
   3238 21r8As00           9060 	ld	hl,#_extend + 0
   323B 36 00              9061 	ld	(hl), #0x00
   323D C3rBAs32           9062 	jp	00119$
   3240                    9063 00104$:
                           9064 ;main.c:2796: if (keypad_1==3) {currentLevel = 10;extend=0;break;}
   3240 3Ar00s00           9065 	ld	a,(#_keypad_1 + 0)
   3243 D6 03              9066 	sub	a,#0x03
   3245 20 0C              9067 	jr	NZ,00106$
   3247 21r97s00           9068 	ld	hl,#_currentLevel + 0
   324A 36 0A              9069 	ld	(hl), #0x0A
   324C 21r8As00           9070 	ld	hl,#_extend + 0
   324F 36 00              9071 	ld	(hl), #0x00
   3251 18 67              9072 	jr	00119$
   3253                    9073 00106$:
                           9074 ;main.c:2797: if (keypad_1==4) {currentLevel = 15;extend=0;break;}
   3253 3Ar00s00           9075 	ld	a,(#_keypad_1 + 0)
   3256 D6 04              9076 	sub	a,#0x04
   3258 20 0C              9077 	jr	NZ,00108$
   325A 21r97s00           9078 	ld	hl,#_currentLevel + 0
   325D 36 0F              9079 	ld	(hl), #0x0F
   325F 21r8As00           9080 	ld	hl,#_extend + 0
   3262 36 00              9081 	ld	(hl), #0x00
   3264 18 54              9082 	jr	00119$
   3266                    9083 00108$:
                           9084 ;main.c:2800: if (keypad_1==5) {currentLevel = 1;extend=1;break;}
   3266 3Ar00s00           9085 	ld	a,(#_keypad_1 + 0)
   3269 D6 05              9086 	sub	a,#0x05
   326B 20 0C              9087 	jr	NZ,00110$
   326D 21r97s00           9088 	ld	hl,#_currentLevel + 0
   3270 36 01              9089 	ld	(hl), #0x01
   3272 21r8As00           9090 	ld	hl,#_extend + 0
   3275 36 01              9091 	ld	(hl), #0x01
   3277 18 41              9092 	jr	00119$
   3279                    9093 00110$:
                           9094 ;main.c:2801: if (keypad_1==6) {currentLevel = 5;extend=1;break;}
   3279 3Ar00s00           9095 	ld	a,(#_keypad_1 + 0)
   327C D6 06              9096 	sub	a,#0x06
   327E 20 0C              9097 	jr	NZ,00112$
   3280 21r97s00           9098 	ld	hl,#_currentLevel + 0
   3283 36 05              9099 	ld	(hl), #0x05
   3285 21r8As00           9100 	ld	hl,#_extend + 0
   3288 36 01              9101 	ld	(hl), #0x01
   328A 18 2E              9102 	jr	00119$
   328C                    9103 00112$:
                           9104 ;main.c:2802: if (keypad_1==7) {currentLevel = 10;extend=1;break;}
   328C 3Ar00s00           9105 	ld	a,(#_keypad_1 + 0)
   328F D6 07              9106 	sub	a,#0x07
   3291 20 0C              9107 	jr	NZ,00114$
   3293 21r97s00           9108 	ld	hl,#_currentLevel + 0
   3296 36 0A              9109 	ld	(hl), #0x0A
   3298 21r8As00           9110 	ld	hl,#_extend + 0
   329B 36 01              9111 	ld	(hl), #0x01
   329D 18 1B              9112 	jr	00119$
   329F                    9113 00114$:
                           9114 ;main.c:2803: if (keypad_1==8) {currentLevel = 15;extend=1;break;}	
   329F 3Ar00s00           9115 	ld	a,(#_keypad_1 + 0)
   32A2 D6 08              9116 	sub	a,#0x08
   32A4 20 0C              9117 	jr	NZ,00116$
   32A6 21r97s00           9118 	ld	hl,#_currentLevel + 0
   32A9 36 0F              9119 	ld	(hl), #0x0F
   32AB 21r8As00           9120 	ld	hl,#_extend + 0
   32AE 36 01              9121 	ld	(hl), #0x01
   32B0 18 08              9122 	jr	00119$
   32B2                    9123 00116$:
                           9124 ;main.c:2804: currentAbsoluteLevel=1;				
   32B2 21r98s00           9125 	ld	hl,#_currentAbsoluteLevel + 0
   32B5 36 01              9126 	ld	(hl), #0x01
   32B7 C3r18s32           9127 	jp	00118$
   32BA                    9128 00119$:
                           9129 ;main.c:2822: disable_nmi();
   32BA CDr00s00           9130 	call	_disable_nmi
                           9131 ;main.c:2824: eraseScreen();			
   32BD CDr8Bs2F           9132 	call	_eraseScreen
                           9133 ;main.c:2825: changeFontColor(15,1);
   32C0 21 0F 01           9134 	ld	hl,#0x010F
   32C3 E5                 9135 	push	hl
   32C4 CDr20s03           9136 	call	_changeFontColor
   32C7 F1                 9137 	pop	af
                           9138 ;main.c:2828: while (j>0)
   32C8 01 04 00           9139 	ld	bc,#0x0004
   32CB                    9140 00120$:
   32CB 79                 9141 	ld	a,c
   32CC B0                 9142 	or	a,b
   32CD 28 2C              9143 	jr	Z,00122$
                           9144 ;main.c:2830: center_string(12,grp1);
   32CF C5                 9145 	push	bc
   32D0 21r8Cs00           9146 	ld	hl,#_grp1
   32D3 E5                 9147 	push	hl
   32D4 3E 0C              9148 	ld	a,#0x0C
   32D6 F5                 9149 	push	af
   32D7 33                 9150 	inc	sp
   32D8 CDr00s00           9151 	call	_center_string
   32DB 33                 9152 	inc	sp
   32DC 21 0A 00           9153 	ld	hl,#0x000A
   32DF E3                 9154 	ex	(sp),hl
   32E0 CDr00s00           9155 	call	_delay
   32E3 21rE8s38           9156 	ld	hl,#__str_12
   32E6 E3                 9157 	ex	(sp),hl
   32E7 3E 0C              9158 	ld	a,#0x0C
   32E9 F5                 9159 	push	af
   32EA 33                 9160 	inc	sp
   32EB CDr00s00           9161 	call	_center_string
   32EE 33                 9162 	inc	sp
   32EF 21 0A 00           9163 	ld	hl,#0x000A
   32F2 E3                 9164 	ex	(sp),hl
   32F3 CDr00s00           9165 	call	_delay
   32F6 F1                 9166 	pop	af
   32F7 C1                 9167 	pop	bc
                           9168 ;main.c:2834: j--;
   32F8 0B                 9169 	dec	bc
   32F9 18 D0              9170 	jr	00120$
   32FB                    9171 00122$:
                           9172 ;main.c:2836: enable_nmi();
   32FB CDr00s00           9173 	call	_enable_nmi
                           9174 ;main.c:2837: levelParamNbLives = 3;	
   32FE FD 21r2Fs01        9175 	ld	iy,#_levelParamNbLives
   3302 FD 36 00 03        9176 	ld	0 (iy),#0x03
   3306 FD 36 01 00        9177 	ld	1 (iy),#0x00
                           9178 ;main.c:2838: for (i=0;i<4;i++)
   330A 01 00 00           9179 	ld	bc,#0x0000
   330D                    9180 00178$:
   330D 79                 9181 	ld	a,c
   330E D6 04              9182 	sub	a,#0x04
   3310 78                 9183 	ld	a,b
   3311 DE 00              9184 	sbc	a,#0x00
   3313 30 0D              9185 	jr	NC,00181$
                           9186 ;main.c:2839: initCop(i);
   3315 69                 9187 	ld	l,c
   3316 C5                 9188 	push	bc
   3317 7D                 9189 	ld	a,l
   3318 F5                 9190 	push	af
   3319 33                 9191 	inc	sp
   331A CDrFEs16           9192 	call	_initCop
   331D 33                 9193 	inc	sp
   331E C1                 9194 	pop	bc
                           9195 ;main.c:2838: for (i=0;i<4;i++)
   331F 03                 9196 	inc	bc
   3320 18 EB              9197 	jr	00178$
   3322                    9198 00181$:
                           9199 ;main.c:2840: initPlayer();
   3322 CDr48s16           9200 	call	_initPlayer
                           9201 ;main.c:2841: initBonus();
   3325 CDrA8s03           9202 	call	_initBonus
                           9203 ;main.c:2843: bigTimer = 0;
   3328 FD 21r95s00        9204 	ld	iy,#_bigTimer
   332C FD 36 00 00        9205 	ld	0 (iy),#0x00
   3330 FD 36 01 00        9206 	ld	1 (iy),#0x00
                           9207 ;main.c:2844: currentBonus = 0;	
   3334 21r8Bs00           9208 	ld	hl,#_currentBonus + 0
   3337 36 00              9209 	ld	(hl), #0x00
                           9210 ;main.c:2846: player.score = 0;	
   3339 21r19s00           9211 	ld	hl,#0x0017 + _player
   333C 36 00              9212 	ld	(hl),#0x00
   333E 23                 9213 	inc	hl
   333F 36 00              9214 	ld	(hl),#0x00
                           9215 ;main.c:2847: player.doorOpen = NOK;
   3341 21r08s00           9216 	ld	hl,#0x0006 + _player
   3344 36 01              9217 	ld	(hl),#0x01
                           9218 ;main.c:2848: player.nbLives=levelParamNbLives;
   3346 3Ar2Fs01           9219 	ld	a,(#_levelParamNbLives + 0)
   3349 32r1Fs00           9220 	ld	(#0x001d + _player),a
                           9221 ;main.c:2850: playIntro();
   334C CDr79s2E           9222 	call	_playIntro
                           9223 ;main.c:2853: screen_off();
   334F CDr00s00           9224 	call	_screen_off
                           9225 ;main.c:2855: rle2vram(NAMERLE,chrtab);	
   3352 21 00 18           9226 	ld	hl,#0x1800
   3355 E5                 9227 	push	hl
   3356 21r00s00           9228 	ld	hl,#_NAMERLE
   3359 E5                 9229 	push	hl
   335A CDr00s00           9230 	call	_rle2vram
   335D F1                 9231 	pop	af
                           9232 ;main.c:2857: load_patternrle(PATTERNRLE);
   335E 21r00s00           9233 	ld	hl,#_PATTERNRLE
   3361 E3                 9234 	ex	(sp),hl
   3362 CDr00s00           9235 	call	_load_patternrle
   3365 F1                 9236 	pop	af
                           9237 ;main.c:2858: duplicate_pattern();
   3366 CDr00s00           9238 	call	_duplicate_pattern
                           9239 ;main.c:2861: rle2vram(COLORRLE,coltab);
   3369 21 00 20           9240 	ld	hl,#0x2000
   336C E5                 9241 	push	hl
   336D 21r00s00           9242 	ld	hl,#_COLORRLE
   3370 E5                 9243 	push	hl
   3371 CDr00s00           9244 	call	_rle2vram
   3374 F1                 9245 	pop	af
                           9246 ;main.c:2862: rle2vram(COLORRLE,coltab+2048);
   3375 21 00 28           9247 	ld	hl,#0x2800
   3378 E3                 9248 	ex	(sp),hl
   3379 21r00s00           9249 	ld	hl,#_COLORRLE
   337C E5                 9250 	push	hl
   337D CDr00s00           9251 	call	_rle2vram
   3380 F1                 9252 	pop	af
                           9253 ;main.c:2863: rle2vram(COLORRLE,coltab+4096);	
   3381 21 00 30           9254 	ld	hl,#0x3000
   3384 E3                 9255 	ex	(sp),hl
   3385 21r00s00           9256 	ld	hl,#_COLORRLE
   3388 E5                 9257 	push	hl
   3389 CDr00s00           9258 	call	_rle2vram
   338C F1                 9259 	pop	af
                           9260 ;main.c:2865: rle2vram(SPATTERNRLE,sprtab);	
   338D 21 00 38           9261 	ld	hl,#0x3800
   3390 E3                 9262 	ex	(sp),hl
   3391 21r00s00           9263 	ld	hl,#_SPATTERNRLE
   3394 E5                 9264 	push	hl
   3395 CDr00s00           9265 	call	_rle2vram
   3398 F1                 9266 	pop	af
   3399 F1                 9267 	pop	af
                           9268 ;main.c:2866: renderPlayerLevel();
   339A CDrEBs05           9269 	call	_renderPlayerLevel
                           9270 ;main.c:2867: renderPlayerNbLives();
   339D CDrCDs05           9271 	call	_renderPlayerNbLives
                           9272 ;main.c:2868: renderPlayerScore();
   33A0 CDrFFs04           9273 	call	_renderPlayerScore
                           9274 ;main.c:2869: renderPlayerHiScore();
   33A3 CDr68s05           9275 	call	_renderPlayerHiScore
                           9276 ;main.c:2871: screen_on();
   33A6 CDr00s00           9277 	call	_screen_on
                           9278 ;main.c:2872: enable_nmi();
   33A9 CDr00s00           9279 	call	_enable_nmi
                           9280 ;main.c:2873: delay(1);
   33AC 21 01 00           9281 	ld	hl,#0x0001
   33AF E5                 9282 	push	hl
   33B0 CDr00s00           9283 	call	_delay
   33B3 F1                 9284 	pop	af
                           9285 ;main.c:2874: nextLifeBonus=500;
   33B4 FD 21r36s01        9286 	ld	iy,#_nextLifeBonus
   33B8 FD 36 00 F4        9287 	ld	0 (iy),#0xF4
   33BC FD 36 01 01        9288 	ld	1 (iy),#0x01
                           9289 ;main.c:2876: workflow=W_INGAME;
   33C0 21r99s00           9290 	ld	hl,#_workflow + 0
   33C3 36 03              9291 	ld	(hl), #0x03
   33C5 C3r3Fs30           9292 	jp	00164$
   33C8                    9293 00158$:
                           9294 ;main.c:2880: if (workflow==W_INGAME)
   33C8 3Ar99s00           9295 	ld	a,(#_workflow + 0)
   33CB D6 03              9296 	sub	a,#0x03
   33CD 20 45              9297 	jr	NZ,00155$
                           9298 ;main.c:2882: screen_off();
   33CF CDr00s00           9299 	call	_screen_off
                           9300 ;main.c:2883: initLevel(currentLevel); 			
   33D2 3Ar97s00           9301 	ld	a,(_currentLevel)
   33D5 F5                 9302 	push	af
   33D6 33                 9303 	inc	sp
   33D7 CDrA4s25           9304 	call	_initLevel
   33DA 33                 9305 	inc	sp
                           9306 ;main.c:2884: for (i=0;i<4;i++)
   33DB 01 00 00           9307 	ld	bc,#0x0000
   33DE                    9308 00182$:
   33DE 79                 9309 	ld	a,c
   33DF D6 04              9310 	sub	a,#0x04
   33E1 78                 9311 	ld	a,b
   33E2 DE 00              9312 	sbc	a,#0x00
   33E4 30 0D              9313 	jr	NC,00185$
                           9314 ;main.c:2885: initCop(i);
   33E6 69                 9315 	ld	l,c
   33E7 C5                 9316 	push	bc
   33E8 7D                 9317 	ld	a,l
   33E9 F5                 9318 	push	af
   33EA 33                 9319 	inc	sp
   33EB CDrFEs16           9320 	call	_initCop
   33EE 33                 9321 	inc	sp
   33EF C1                 9322 	pop	bc
                           9323 ;main.c:2884: for (i=0;i<4;i++)
   33F0 03                 9324 	inc	bc
   33F1 18 EB              9325 	jr	00182$
   33F3                    9326 00185$:
                           9327 ;main.c:2886: screen_on();
   33F3 CDr00s00           9328 	call	_screen_on
                           9329 ;main.c:2887: activateNmi=OK;
   33F6 21r35s01           9330 	ld	hl,#_activateNmi + 0
   33F9 36 00              9331 	ld	(hl), #0x00
                           9332 ;main.c:2888: enable_nmi();
   33FB CDr00s00           9333 	call	_enable_nmi
                           9334 ;main.c:2889: stopmusic();
   33FE CDr2Cs02           9335 	call	_stopmusic
                           9336 ;main.c:2890: startmusic(music_inGame,LOOP_ON);
   3401 3E 01              9337 	ld	a,#0x01
   3403 F5                 9338 	push	af
   3404 33                 9339 	inc	sp
   3405 21r00s00           9340 	ld	hl,#_music_inGame
   3408 E5                 9341 	push	hl
   3409 CDr71s02           9342 	call	_startmusic
   340C F1                 9343 	pop	af
   340D 33                 9344 	inc	sp
                           9345 ;main.c:2891: gameLoop(); // C'est lui qui va dfinir le prochaine workflow --> W_NEXTLEVEL	
   340E CDr75s2B           9346 	call	_gameLoop
   3411 C3r3Fs30           9347 	jp	00164$
   3414                    9348 00155$:
                           9349 ;main.c:2896: if (workflow==W_RETRY)
   3414 3Ar99s00           9350 	ld	a,(#_workflow + 0)
   3417 D6 06              9351 	sub	a,#0x06
   3419 C2rA5s34           9352 	jp	NZ,00152$
                           9353 ;main.c:2898: if (player.nbLives>0) {player.nbLives--;	workflow=W_INGAME;}		else workflow = W_GAMEOVER;												
   341C 21r1Fs00           9354 	ld	hl,#0x001d + _player
   341F 6E                 9355 	ld	l,(hl)
   3420 3E 00              9356 	ld	a,#0x00
   3422 95                 9357 	sub	a,l
   3423 E2r28s34           9358 	jp	PO,00270$
   3426 EE 80              9359 	xor	a,#0x80
   3428                    9360 00270$:
   3428 F2r37s34           9361 	jp	P,00124$
   342B 7D                 9362 	ld	a,l
   342C 3D                 9363 	dec	a
   342D 32r1Fs00           9364 	ld	(#0x001d + _player),a
   3430 21r99s00           9365 	ld	hl,#_workflow + 0
   3433 36 03              9366 	ld	(hl), #0x03
   3435 18 05              9367 	jr	00125$
   3437                    9368 00124$:
   3437 21r99s00           9369 	ld	hl,#_workflow + 0
   343A 36 05              9370 	ld	(hl), #0x05
   343C                    9371 00125$:
                           9372 ;main.c:2900: screen_off();
   343C CDr00s00           9373 	call	_screen_off
                           9374 ;main.c:2901: for (i=0;i<4;i++)
   343F 01 00 00           9375 	ld	bc,#0x0000
   3442                    9376 00186$:
   3442 79                 9377 	ld	a,c
   3443 D6 04              9378 	sub	a,#0x04
   3445 78                 9379 	ld	a,b
   3446 DE 00              9380 	sbc	a,#0x00
   3448 30 0D              9381 	jr	NC,00189$
                           9382 ;main.c:2902: initCop(i);
   344A 69                 9383 	ld	l,c
   344B C5                 9384 	push	bc
   344C 7D                 9385 	ld	a,l
   344D F5                 9386 	push	af
   344E 33                 9387 	inc	sp
   344F CDrFEs16           9388 	call	_initCop
   3452 33                 9389 	inc	sp
   3453 C1                 9390 	pop	bc
                           9391 ;main.c:2901: for (i=0;i<4;i++)
   3454 03                 9392 	inc	bc
   3455 18 EB              9393 	jr	00186$
   3457                    9394 00189$:
                           9395 ;main.c:2905: autoDoorTimer=0;
   3457 FD 21r8Fs00        9396 	ld	iy,#_autoDoorTimer
   345B FD 36 00 00        9397 	ld	0 (iy),#0x00
   345F FD 36 01 00        9398 	ld	1 (iy),#0x00
                           9399 ;main.c:2906: autoDoorCurrentGfx=17;			
   3463 21r80s00           9400 	ld	hl,#_autoDoorCurrentGfx + 0
   3466 36 11              9401 	ld	(hl), #0x11
                           9402 ;main.c:2907: playerDoors[0].affiche=OK;
   3468 21r5Es00           9403 	ld	hl,#0x0008 + _playerDoors
   346B 36 00              9404 	ld	(hl),#0x00
                           9405 ;main.c:2908: playerDoors[0].timer=0;
   346D 21r56s00           9406 	ld	hl,#_playerDoors
   3470 36 00              9407 	ld	(hl),#0x00
   3472 23                 9408 	inc	hl
   3473 36 00              9409 	ld	(hl),#0x00
                           9410 ;main.c:2909: playerDoors[1].affiche=OK;
   3475 21r6Bs00           9411 	ld	hl,#0x0015 + _playerDoors
   3478 36 00              9412 	ld	(hl),#0x00
                           9413 ;main.c:2910: playerDoors[1].timer=0;
   347A 21r63s00           9414 	ld	hl,#0x000d + _playerDoors
   347D 36 00              9415 	ld	(hl),#0x00
   347F 23                 9416 	inc	hl
   3480 36 00              9417 	ld	(hl),#0x00
                           9418 ;main.c:2911: renderDoors();		
   3482 CDr35s22           9419 	call	_renderDoors
                           9420 ;main.c:2912: renderAutoDoor();		
   3485 CDr50s08           9421 	call	_renderAutoDoor
                           9422 ;main.c:2913: renderPlayerLevel();
   3488 CDrEBs05           9423 	call	_renderPlayerLevel
                           9424 ;main.c:2914: renderPlayerNbLives();
   348B CDrCDs05           9425 	call	_renderPlayerNbLives
                           9426 ;main.c:2915: renderPlayerScore();	
   348E CDrFFs04           9427 	call	_renderPlayerScore
                           9428 ;main.c:2916: renderPlayerHiScore	();	
   3491 CDr68s05           9429 	call	_renderPlayerHiScore
                           9430 ;main.c:2917: screen_on();
   3494 CDr00s00           9431 	call	_screen_on
                           9432 ;main.c:2918: enable_nmi();
   3497 CDr00s00           9433 	call	_enable_nmi
                           9434 ;main.c:2919: delay(1);
   349A 21 01 00           9435 	ld	hl,#0x0001
   349D E5                 9436 	push	hl
   349E CDr00s00           9437 	call	_delay
   34A1 F1                 9438 	pop	af
   34A2 C3r3Fs30           9439 	jp	00164$
   34A5                    9440 00152$:
                           9441 ;main.c:2924: if (workflow==W_NEXTLEVEL)
   34A5 3Ar99s00           9442 	ld	a,(#_workflow + 0)
   34A8 D6 04              9443 	sub	a,#0x04
   34AA C2rE6s36           9444 	jp	NZ,00149$
                           9445 ;main.c:2926: stopmusic();
   34AD CDr2Cs02           9446 	call	_stopmusic
                           9447 ;main.c:2927: delay(5);
   34B0 21 05 00           9448 	ld	hl,#0x0005
   34B3 E5                 9449 	push	hl
   34B4 CDr00s00           9450 	call	_delay
   34B7 F1                 9451 	pop	af
                           9452 ;main.c:2928: screen_off();
   34B8 CDr00s00           9453 	call	_screen_off
                           9454 ;main.c:2929: disable_nmi();
   34BB CDr00s00           9455 	call	_disable_nmi
                           9456 ;main.c:2930: rle2vram(TITLENAMERLE,chrtab);	
   34BE 21 00 18           9457 	ld	hl,#0x1800
   34C1 E5                 9458 	push	hl
   34C2 21r00s00           9459 	ld	hl,#_TITLENAMERLE
   34C5 E5                 9460 	push	hl
   34C6 CDr00s00           9461 	call	_rle2vram
   34C9 F1                 9462 	pop	af
                           9463 ;main.c:2932: load_patternrle(TITLEPATTERNRLE);
   34CA 21r00s00           9464 	ld	hl,#_TITLEPATTERNRLE
   34CD E3                 9465 	ex	(sp),hl
   34CE CDr00s00           9466 	call	_load_patternrle
   34D1 F1                 9467 	pop	af
                           9468 ;main.c:2933: duplicate_pattern();
   34D2 CDr00s00           9469 	call	_duplicate_pattern
                           9470 ;main.c:2936: rle2vram(TITLECOLORRLE,coltab);
   34D5 21 00 20           9471 	ld	hl,#0x2000
   34D8 E5                 9472 	push	hl
   34D9 21r00s00           9473 	ld	hl,#_TITLECOLORRLE
   34DC E5                 9474 	push	hl
   34DD CDr00s00           9475 	call	_rle2vram
   34E0 F1                 9476 	pop	af
                           9477 ;main.c:2937: rle2vram(TITLECOLORRLE,coltab+2048);
   34E1 21 00 28           9478 	ld	hl,#0x2800
   34E4 E3                 9479 	ex	(sp),hl
   34E5 21r00s00           9480 	ld	hl,#_TITLECOLORRLE
   34E8 E5                 9481 	push	hl
   34E9 CDr00s00           9482 	call	_rle2vram
   34EC F1                 9483 	pop	af
                           9484 ;main.c:2938: rle2vram(TITLECOLORRLE,coltab+4096);
   34ED 21 00 30           9485 	ld	hl,#0x3000
   34F0 E3                 9486 	ex	(sp),hl
   34F1 21r00s00           9487 	ld	hl,#_TITLECOLORRLE
   34F4 E5                 9488 	push	hl
   34F5 CDr00s00           9489 	call	_rle2vram
   34F8 F1                 9490 	pop	af
                           9491 ;main.c:2939: changeFontColor(15,1);
   34F9 21 0F 01           9492 	ld	hl,#0x010F
   34FC E3                 9493 	ex	(sp),hl
   34FD CDr20s03           9494 	call	_changeFontColor
   3500 F1                 9495 	pop	af
                           9496 ;main.c:2943: eraseScreen();
   3501 CDr8Bs2F           9497 	call	_eraseScreen
                           9498 ;main.c:2944: resetSprites();
   3504 CDr58s2E           9499 	call	_resetSprites
                           9500 ;main.c:2945: updatesprites(0,6);
   3507 21 00 06           9501 	ld	hl,#0x0600
   350A E5                 9502 	push	hl
   350B CDr00s00           9503 	call	_updatesprites
                           9504 ;main.c:2946: delay(1);
   350E 21 01 00           9505 	ld	hl,#0x0001
   3511 E3                 9506 	ex	(sp),hl
   3512 CDr00s00           9507 	call	_delay
   3515 F1                 9508 	pop	af
                           9509 ;main.c:2947: activateNmi=NOK;
   3516 21r35s01           9510 	ld	hl,#_activateNmi + 0
   3519 36 01              9511 	ld	(hl), #0x01
                           9512 ;main.c:2948: screen_on();			
   351B CDr00s00           9513 	call	_screen_on
                           9514 ;main.c:2951: center_string(8,"CONGRATULATIONS !!");
   351E 21rFBs38           9515 	ld	hl,#__str_13
   3521 E5                 9516 	push	hl
   3522 3E 08              9517 	ld	a,#0x08
   3524 F5                 9518 	push	af
   3525 33                 9519 	inc	sp
   3526 CDr00s00           9520 	call	_center_string
                           9521 ;main.c:2952: center_string(10,"PRESS FIRE FOR NEXT-LEVEL");
   3529 33                 9522 	inc	sp
   352A 21r0Es39           9523 	ld	hl,#__str_14
   352D E3                 9524 	ex	(sp),hl
   352E 3E 0A              9525 	ld	a,#0x0A
   3530 F5                 9526 	push	af
   3531 33                 9527 	inc	sp
   3532 CDr00s00           9528 	call	_center_string
   3535 F1                 9529 	pop	af
   3536 33                 9530 	inc	sp
                           9531 ;main.c:2954: enable_nmi();
   3537 CDr00s00           9532 	call	_enable_nmi
                           9533 ;main.c:2955: stopmusic();
   353A CDr2Cs02           9534 	call	_stopmusic
                           9535 ;main.c:2956: startmusic(music_nextLevel,LOOP_OFF);
   353D 3E 00              9536 	ld	a,#0x00
   353F F5                 9537 	push	af
   3540 33                 9538 	inc	sp
   3541 21r00s00           9539 	ld	hl,#_music_nextLevel
   3544 E5                 9540 	push	hl
   3545 CDr71s02           9541 	call	_startmusic
   3548 F1                 9542 	pop	af
   3549 33                 9543 	inc	sp
                           9544 ;main.c:2970: pause();
   354A CDr00s00           9545 	call	_pause
                           9546 ;main.c:2972: stopmusic();
   354D CDr2Cs02           9547 	call	_stopmusic
                           9548 ;main.c:2976: for (i=0;i<4;i++)
   3550 01 00 00           9549 	ld	bc,#0x0000
   3553                    9550 00190$:
   3553 79                 9551 	ld	a,c
   3554 D6 04              9552 	sub	a,#0x04
   3556 78                 9553 	ld	a,b
   3557 DE 00              9554 	sbc	a,#0x00
   3559 30 0D              9555 	jr	NC,00193$
                           9556 ;main.c:2977: initCop(i);
   355B 69                 9557 	ld	l,c
   355C C5                 9558 	push	bc
   355D 7D                 9559 	ld	a,l
   355E F5                 9560 	push	af
   355F 33                 9561 	inc	sp
   3560 CDrFEs16           9562 	call	_initCop
   3563 33                 9563 	inc	sp
   3564 C1                 9564 	pop	bc
                           9565 ;main.c:2976: for (i=0;i<4;i++)
   3565 03                 9566 	inc	bc
   3566 18 EB              9567 	jr	00190$
   3568                    9568 00193$:
                           9569 ;main.c:2978: currentLevel++;
   3568 FD 21r97s00        9570 	ld	iy,#_currentLevel
   356C FD 34 00           9571 	inc	0 (iy)
                           9572 ;main.c:2979: if (currentLevel>3)
   356F 3E 03              9573 	ld	a,#0x03
   3571 FD 96 00           9574 	sub	a,0 (iy)
   3574 30 2D              9575 	jr	NC,00133$
                           9576 ;main.c:2981: if ((currentLevel%3)==0) currentAbsoluteLevel=3;
   3576 3E 03              9577 	ld	a,#0x03
   3578 F5                 9578 	push	af
   3579 33                 9579 	inc	sp
   357A 3Ar97s00           9580 	ld	a,(_currentLevel)
   357D F5                 9581 	push	af
   357E 33                 9582 	inc	sp
   357F CDr00s00           9583 	call	__moduchar_rrx_s
   3582 F1                 9584 	pop	af
   3583 AF                 9585 	xor	a,a
   3584 B5                 9586 	or	a,l
   3585 20 07              9587 	jr	NZ,00130$
   3587 21r98s00           9588 	ld	hl,#_currentAbsoluteLevel + 0
   358A 36 03              9589 	ld	(hl), #0x03
   358C 18 1B              9590 	jr	00134$
   358E                    9591 00130$:
                           9592 ;main.c:2983: if ((currentLevel%2)==0) currentAbsoluteLevel=2;
   358E 3Ar97s00           9593 	ld	a,(#_currentLevel + 0)
   3591 E6 01              9594 	and	a,#0x01
   3593 20 07              9595 	jr	NZ,00127$
   3595 21r98s00           9596 	ld	hl,#_currentAbsoluteLevel + 0
   3598 36 02              9597 	ld	(hl), #0x02
   359A 18 0D              9598 	jr	00134$
   359C                    9599 00127$:
                           9600 ;main.c:2985: currentAbsoluteLevel=1;
   359C 21r98s00           9601 	ld	hl,#_currentAbsoluteLevel + 0
   359F 36 01              9602 	ld	(hl), #0x01
   35A1 18 06              9603 	jr	00134$
   35A3                    9604 00133$:
                           9605 ;main.c:2989: currentAbsoluteLevel = currentLevel;
   35A3 3Ar97s00           9606 	ld	a,(#_currentLevel + 0)
   35A6 32r98s00           9607 	ld	(#_currentAbsoluteLevel + 0),a
   35A9                    9608 00134$:
                           9609 ;main.c:2992: player.doorOpen = NOK; // Les portes sont de nouveaux fermes			
   35A9 21r08s00           9610 	ld	hl,#0x0006 + _player
   35AC 36 01              9611 	ld	(hl),#0x01
                           9612 ;main.c:2994: disable_nmi();
   35AE CDr00s00           9613 	call	_disable_nmi
                           9614 ;main.c:2995: screen_off();
   35B1 CDr00s00           9615 	call	_screen_off
                           9616 ;main.c:2999: if (extend==1)
   35B4 3Ar8As00           9617 	ld	a,(#_extend + 0)
   35B7 D6 01              9618 	sub	a,#0x01
   35B9 C2r85s36           9619 	jp	NZ,00142$
                           9620 ;main.c:3001: if ((currentAbsoluteLevel)==3)
   35BC 3Ar98s00           9621 	ld	a,(#_currentAbsoluteLevel + 0)
   35BF D6 03              9622 	sub	a,#0x03
   35C1 20 3F              9623 	jr	NZ,00139$
                           9624 ;main.c:3003: rle2vram(NAMERLE_LEVEL3,chrtab);	
   35C3 21 00 18           9625 	ld	hl,#0x1800
   35C6 E5                 9626 	push	hl
   35C7 21r00s00           9627 	ld	hl,#_NAMERLE_LEVEL3
   35CA E5                 9628 	push	hl
   35CB CDr00s00           9629 	call	_rle2vram
   35CE F1                 9630 	pop	af
                           9631 ;main.c:3005: load_patternrle(PATTERNRLE_LEVEL3);
   35CF 21r00s00           9632 	ld	hl,#_PATTERNRLE_LEVEL3
   35D2 E3                 9633 	ex	(sp),hl
   35D3 CDr00s00           9634 	call	_load_patternrle
   35D6 F1                 9635 	pop	af
                           9636 ;main.c:3006: duplicate_pattern();
   35D7 CDr00s00           9637 	call	_duplicate_pattern
                           9638 ;main.c:3009: rle2vram(COLORRLE_LEVEL3,coltab);
   35DA 21 00 20           9639 	ld	hl,#0x2000
   35DD E5                 9640 	push	hl
   35DE 21r00s00           9641 	ld	hl,#_COLORRLE_LEVEL3
   35E1 E5                 9642 	push	hl
   35E2 CDr00s00           9643 	call	_rle2vram
   35E5 F1                 9644 	pop	af
                           9645 ;main.c:3010: rle2vram(COLORRLE_LEVEL3,coltab+2048);
   35E6 21 00 28           9646 	ld	hl,#0x2800
   35E9 E3                 9647 	ex	(sp),hl
   35EA 21r00s00           9648 	ld	hl,#_COLORRLE_LEVEL3
   35ED E5                 9649 	push	hl
   35EE CDr00s00           9650 	call	_rle2vram
   35F1 F1                 9651 	pop	af
                           9652 ;main.c:3011: rle2vram(COLORRLE_LEVEL3,coltab+4096);					
   35F2 21 00 30           9653 	ld	hl,#0x3000
   35F5 E3                 9654 	ex	(sp),hl
   35F6 21r00s00           9655 	ld	hl,#_COLORRLE_LEVEL3
   35F9 E5                 9656 	push	hl
   35FA CDr00s00           9657 	call	_rle2vram
   35FD F1                 9658 	pop	af
   35FE F1                 9659 	pop	af
   35FF C3rC1s36           9660 	jp	00143$
   3602                    9661 00139$:
                           9662 ;main.c:3013: else if ((currentAbsoluteLevel)==2)
   3602 3Ar98s00           9663 	ld	a,(#_currentAbsoluteLevel + 0)
   3605 D6 02              9664 	sub	a,#0x02
   3607 20 3E              9665 	jr	NZ,00136$
                           9666 ;main.c:3015: rle2vram(NAMERLE_LEVEL2,chrtab);	
   3609 21 00 18           9667 	ld	hl,#0x1800
   360C E5                 9668 	push	hl
   360D 21r00s00           9669 	ld	hl,#_NAMERLE_LEVEL2
   3610 E5                 9670 	push	hl
   3611 CDr00s00           9671 	call	_rle2vram
   3614 F1                 9672 	pop	af
                           9673 ;main.c:3017: load_patternrle(PATTERNRLE_LEVEL2);
   3615 21r00s00           9674 	ld	hl,#_PATTERNRLE_LEVEL2
   3618 E3                 9675 	ex	(sp),hl
   3619 CDr00s00           9676 	call	_load_patternrle
   361C F1                 9677 	pop	af
                           9678 ;main.c:3018: duplicate_pattern();
   361D CDr00s00           9679 	call	_duplicate_pattern
                           9680 ;main.c:3021: rle2vram(COLORRLE_LEVEL2,coltab);
   3620 21 00 20           9681 	ld	hl,#0x2000
   3623 E5                 9682 	push	hl
   3624 21r00s00           9683 	ld	hl,#_COLORRLE_LEVEL2
   3627 E5                 9684 	push	hl
   3628 CDr00s00           9685 	call	_rle2vram
   362B F1                 9686 	pop	af
                           9687 ;main.c:3022: rle2vram(COLORRLE_LEVEL2,coltab+2048);
   362C 21 00 28           9688 	ld	hl,#0x2800
   362F E3                 9689 	ex	(sp),hl
   3630 21r00s00           9690 	ld	hl,#_COLORRLE_LEVEL2
   3633 E5                 9691 	push	hl
   3634 CDr00s00           9692 	call	_rle2vram
   3637 F1                 9693 	pop	af
                           9694 ;main.c:3023: rle2vram(COLORRLE_LEVEL2,coltab+4096);					
   3638 21 00 30           9695 	ld	hl,#0x3000
   363B E3                 9696 	ex	(sp),hl
   363C 21r00s00           9697 	ld	hl,#_COLORRLE_LEVEL2
   363F E5                 9698 	push	hl
   3640 CDr00s00           9699 	call	_rle2vram
   3643 F1                 9700 	pop	af
   3644 F1                 9701 	pop	af
   3645 18 7A              9702 	jr	00143$
   3647                    9703 00136$:
                           9704 ;main.c:3027: rle2vram(NAMERLE,chrtab);	
   3647 21 00 18           9705 	ld	hl,#0x1800
   364A E5                 9706 	push	hl
   364B 21r00s00           9707 	ld	hl,#_NAMERLE
   364E E5                 9708 	push	hl
   364F CDr00s00           9709 	call	_rle2vram
   3652 F1                 9710 	pop	af
                           9711 ;main.c:3029: load_patternrle(PATTERNRLE);
   3653 21r00s00           9712 	ld	hl,#_PATTERNRLE
   3656 E3                 9713 	ex	(sp),hl
   3657 CDr00s00           9714 	call	_load_patternrle
   365A F1                 9715 	pop	af
                           9716 ;main.c:3030: duplicate_pattern();
   365B CDr00s00           9717 	call	_duplicate_pattern
                           9718 ;main.c:3033: rle2vram(COLORRLE,coltab);
   365E 21 00 20           9719 	ld	hl,#0x2000
   3661 E5                 9720 	push	hl
   3662 21r00s00           9721 	ld	hl,#_COLORRLE
   3665 E5                 9722 	push	hl
   3666 CDr00s00           9723 	call	_rle2vram
   3669 F1                 9724 	pop	af
                           9725 ;main.c:3034: rle2vram(COLORRLE,coltab+2048);
   366A 21 00 28           9726 	ld	hl,#0x2800
   366D E3                 9727 	ex	(sp),hl
   366E 21r00s00           9728 	ld	hl,#_COLORRLE
   3671 E5                 9729 	push	hl
   3672 CDr00s00           9730 	call	_rle2vram
   3675 F1                 9731 	pop	af
                           9732 ;main.c:3035: rle2vram(COLORRLE,coltab+4096);						
   3676 21 00 30           9733 	ld	hl,#0x3000
   3679 E3                 9734 	ex	(sp),hl
   367A 21r00s00           9735 	ld	hl,#_COLORRLE
   367D E5                 9736 	push	hl
   367E CDr00s00           9737 	call	_rle2vram
   3681 F1                 9738 	pop	af
   3682 F1                 9739 	pop	af
   3683 18 3C              9740 	jr	00143$
   3685                    9741 00142$:
                           9742 ;main.c:3040: rle2vram(NAMERLE,chrtab);	
   3685 21 00 18           9743 	ld	hl,#0x1800
   3688 E5                 9744 	push	hl
   3689 21r00s00           9745 	ld	hl,#_NAMERLE
   368C E5                 9746 	push	hl
   368D CDr00s00           9747 	call	_rle2vram
   3690 F1                 9748 	pop	af
                           9749 ;main.c:3042: load_patternrle(PATTERNRLE);
   3691 21r00s00           9750 	ld	hl,#_PATTERNRLE
   3694 E3                 9751 	ex	(sp),hl
   3695 CDr00s00           9752 	call	_load_patternrle
   3698 F1                 9753 	pop	af
                           9754 ;main.c:3043: duplicate_pattern();
   3699 CDr00s00           9755 	call	_duplicate_pattern
                           9756 ;main.c:3046: rle2vram(COLORRLE,coltab);
   369C 21 00 20           9757 	ld	hl,#0x2000
   369F E5                 9758 	push	hl
   36A0 21r00s00           9759 	ld	hl,#_COLORRLE
   36A3 E5                 9760 	push	hl
   36A4 CDr00s00           9761 	call	_rle2vram
   36A7 F1                 9762 	pop	af
                           9763 ;main.c:3047: rle2vram(COLORRLE,coltab+2048);
   36A8 21 00 28           9764 	ld	hl,#0x2800
   36AB E3                 9765 	ex	(sp),hl
   36AC 21r00s00           9766 	ld	hl,#_COLORRLE
   36AF E5                 9767 	push	hl
   36B0 CDr00s00           9768 	call	_rle2vram
   36B3 F1                 9769 	pop	af
                           9770 ;main.c:3048: rle2vram(COLORRLE,coltab+4096);	
   36B4 21 00 30           9771 	ld	hl,#0x3000
   36B7 E3                 9772 	ex	(sp),hl
   36B8 21r00s00           9773 	ld	hl,#_COLORRLE
   36BB E5                 9774 	push	hl
   36BC CDr00s00           9775 	call	_rle2vram
   36BF F1                 9776 	pop	af
   36C0 F1                 9777 	pop	af
   36C1                    9778 00143$:
                           9779 ;main.c:3051: renderPlayerLevel();
   36C1 CDrEBs05           9780 	call	_renderPlayerLevel
                           9781 ;main.c:3052: renderPlayerNbLives();
   36C4 CDrCDs05           9782 	call	_renderPlayerNbLives
                           9783 ;main.c:3053: renderPlayerScore();	
   36C7 CDrFFs04           9784 	call	_renderPlayerScore
                           9785 ;main.c:3054: renderPlayerHiScore	();		
   36CA CDr68s05           9786 	call	_renderPlayerHiScore
                           9787 ;main.c:3055: screen_on();
   36CD CDr00s00           9788 	call	_screen_on
                           9789 ;main.c:3056: enable_nmi();
   36D0 CDr00s00           9790 	call	_enable_nmi
                           9791 ;main.c:3058: delay(1);
   36D3 21 01 00           9792 	ld	hl,#0x0001
   36D6 E5                 9793 	push	hl
   36D7 CDr00s00           9794 	call	_delay
   36DA F1                 9795 	pop	af
                           9796 ;main.c:3059: initPlayer();
   36DB CDr48s16           9797 	call	_initPlayer
                           9798 ;main.c:3060: workflow=W_INGAME;
   36DE 21r99s00           9799 	ld	hl,#_workflow + 0
   36E1 36 03              9800 	ld	(hl), #0x03
   36E3 C3r3Fs30           9801 	jp	00164$
   36E6                    9802 00149$:
                           9803 ;main.c:3063: if (workflow==W_GAMEOVER)
   36E6 3Ar99s00           9804 	ld	a,(#_workflow + 0)
   36E9 D6 05              9805 	sub	a,#0x05
   36EB C2r3Fs30           9806 	jp	NZ,00164$
                           9807 ;main.c:3065: activateNmi=NOK;
   36EE 21r35s01           9808 	ld	hl,#_activateNmi + 0
   36F1 36 01              9809 	ld	(hl), #0x01
                           9810 ;main.c:3066: screen_off();
   36F3 CDr00s00           9811 	call	_screen_off
                           9812 ;main.c:3067: disable_nmi();
   36F6 CDr00s00           9813 	call	_disable_nmi
                           9814 ;main.c:3068: rle2vram(TITLENAMERLE,chrtab);	
   36F9 21 00 18           9815 	ld	hl,#0x1800
   36FC E5                 9816 	push	hl
   36FD 21r00s00           9817 	ld	hl,#_TITLENAMERLE
   3700 E5                 9818 	push	hl
   3701 CDr00s00           9819 	call	_rle2vram
   3704 F1                 9820 	pop	af
                           9821 ;main.c:3070: load_patternrle(TITLEPATTERNRLE);
   3705 21r00s00           9822 	ld	hl,#_TITLEPATTERNRLE
   3708 E3                 9823 	ex	(sp),hl
   3709 CDr00s00           9824 	call	_load_patternrle
   370C F1                 9825 	pop	af
                           9826 ;main.c:3071: duplicate_pattern();
   370D CDr00s00           9827 	call	_duplicate_pattern
                           9828 ;main.c:3074: rle2vram(TITLECOLORRLE,coltab);
   3710 21 00 20           9829 	ld	hl,#0x2000
   3713 E5                 9830 	push	hl
   3714 21r00s00           9831 	ld	hl,#_TITLECOLORRLE
   3717 E5                 9832 	push	hl
   3718 CDr00s00           9833 	call	_rle2vram
   371B F1                 9834 	pop	af
                           9835 ;main.c:3075: rle2vram(TITLECOLORRLE,coltab+2048);
   371C 21 00 28           9836 	ld	hl,#0x2800
   371F E3                 9837 	ex	(sp),hl
   3720 21r00s00           9838 	ld	hl,#_TITLECOLORRLE
   3723 E5                 9839 	push	hl
   3724 CDr00s00           9840 	call	_rle2vram
   3727 F1                 9841 	pop	af
                           9842 ;main.c:3076: rle2vram(TITLECOLORRLE,coltab+4096);
   3728 21 00 30           9843 	ld	hl,#0x3000
   372B E3                 9844 	ex	(sp),hl
   372C 21r00s00           9845 	ld	hl,#_TITLECOLORRLE
   372F E5                 9846 	push	hl
   3730 CDr00s00           9847 	call	_rle2vram
   3733 F1                 9848 	pop	af
                           9849 ;main.c:3077: changeFontColor(15,1);
   3734 21 0F 01           9850 	ld	hl,#0x010F
   3737 E3                 9851 	ex	(sp),hl
   3738 CDr20s03           9852 	call	_changeFontColor
   373B F1                 9853 	pop	af
                           9854 ;main.c:3081: eraseScreen();
   373C CDr8Bs2F           9855 	call	_eraseScreen
                           9856 ;main.c:3082: resetSprites();
   373F CDr58s2E           9857 	call	_resetSprites
                           9858 ;main.c:3083: updatesprites(0,6);
   3742 21 00 06           9859 	ld	hl,#0x0600
   3745 E5                 9860 	push	hl
   3746 CDr00s00           9861 	call	_updatesprites
                           9862 ;main.c:3084: center_string(8,"GAME OVER");
   3749 21r28s39           9863 	ld	hl,#__str_15
   374C E3                 9864 	ex	(sp),hl
   374D 3E 08              9865 	ld	a,#0x08
   374F F5                 9866 	push	af
   3750 33                 9867 	inc	sp
   3751 CDr00s00           9868 	call	_center_string
                           9869 ;main.c:3085: center_string(10,"FINAL SCORE");
   3754 33                 9870 	inc	sp
   3755 21r32s39           9871 	ld	hl,#__str_16
   3758 E3                 9872 	ex	(sp),hl
   3759 3E 0A              9873 	ld	a,#0x0A
   375B F5                 9874 	push	af
   375C 33                 9875 	inc	sp
   375D CDr00s00           9876 	call	_center_string
   3760 F1                 9877 	pop	af
   3761 33                 9878 	inc	sp
                           9879 ;main.c:3086: center_string(12,str(player.score));
   3762 21r19s00           9880 	ld	hl,#0x0017 + _player
   3765 7E                 9881 	ld	a,(hl)
   3766 23                 9882 	inc	hl
   3767 66                 9883 	ld	h,(hl)
   3768 6F                 9884 	ld	l,a
   3769 E5                 9885 	push	hl
   376A CDr00s00           9886 	call	_str
   376D E3                 9887 	ex	(sp),hl
   376E 3E 0C              9888 	ld	a,#0x0C
   3770 F5                 9889 	push	af
   3771 33                 9890 	inc	sp
   3772 CDr00s00           9891 	call	_center_string
   3775 F1                 9892 	pop	af
   3776 33                 9893 	inc	sp
                           9894 ;main.c:3087: if (player.score>hiscore) 
   3777 21r19s00           9895 	ld	hl,#0x0017 + _player
   377A 4E                 9896 	ld	c,(hl)
   377B 23                 9897 	inc	hl
   377C 46                 9898 	ld	b,(hl)
   377D 21r00s00           9899 	ld	hl,#_hiscore
   3780 7E                 9900 	ld	a,(hl)
   3781 91                 9901 	sub	a,c
   3782 23                 9902 	inc	hl
   3783 7E                 9903 	ld	a,(hl)
   3784 98                 9904 	sbc	a,b
   3785 30 1D              9905 	jr	NC,00145$
                           9906 ;main.c:3089: center_string(15,"YOU'VE GOT HIGH SCORE !!");
   3787 21r3Es39           9907 	ld	hl,#__str_17
   378A E5                 9908 	push	hl
   378B 3E 0F              9909 	ld	a,#0x0F
   378D F5                 9910 	push	af
   378E 33                 9911 	inc	sp
   378F CDr00s00           9912 	call	_center_string
   3792 F1                 9913 	pop	af
   3793 33                 9914 	inc	sp
                           9915 ;main.c:3090: hiscore=player.score;
   3794 21r19s00           9916 	ld	hl,#0x0017 + _player
   3797 7E                 9917 	ld	a,(hl)
   3798 FD 21r00s00        9918 	ld	iy,#_hiscore
   379C FD 77 00           9919 	ld	0 (iy),a
   379F 23                 9920 	inc	hl
   37A0 7E                 9921 	ld	a,(hl)
   37A1 FD 77 01           9922 	ld	1 (iy),a
   37A4                    9923 00145$:
                           9924 ;main.c:3092: screen_on();
   37A4 CDr00s00           9925 	call	_screen_on
                           9926 ;main.c:3093: enable_nmi();
   37A7 CDr00s00           9927 	call	_enable_nmi
                           9928 ;main.c:3094: stopmusic();
   37AA CDr2Cs02           9929 	call	_stopmusic
                           9930 ;main.c:3095: startmusic(music_gameOver,LOOP_OFF);
   37AD 3E 00              9931 	ld	a,#0x00
   37AF F5                 9932 	push	af
   37B0 33                 9933 	inc	sp
   37B1 21r00s00           9934 	ld	hl,#_music_gameOver
   37B4 E5                 9935 	push	hl
   37B5 CDr71s02           9936 	call	_startmusic
   37B8 F1                 9937 	pop	af
   37B9 33                 9938 	inc	sp
                           9939 ;main.c:3096: pause();
   37BA CDr00s00           9940 	call	_pause
                           9941 ;main.c:3097: workflow=W_MENU;
   37BD 21r99s00           9942 	ld	hl,#_workflow + 0
   37C0 36 02              9943 	ld	(hl), #0x02
   37C2 C3r3Fs30           9944 	jp	00164$
   37C5                    9945 _main_end::
   37C5                    9946 __str_2:
   37C5 54 4F 20 53 45 4C  9947 	.ascii "TO SELECT GAME OPTION,"
        45 43 54 20 47 41
        4D 45 20 4F 50 54
        49 4F 4E 2C
   37DB 00                 9948 	.db 0x00
   37DC                    9949 __str_3:
   37DC 50 52 45 53 53 20  9950 	.ascii "PRESS BUTTON ON KEYPAD."
        42 55 54 54 4F 4E
        20 4F 4E 20 4B 45
        59 50 41 44 2E
   37F3 00                 9951 	.db 0x00
   37F4                    9952 __str_4:
   37F4 31 20 3D 20 53 4B  9953 	.ascii "1 = SKILL 1/ONE PLAYER/CLASSIC"
        49 4C 4C 20 31 2F
        4F 4E 45 20 50 4C
        41 59 45 52 2F 43
        4C 41 53 53 49 43
   3812 00                 9954 	.db 0x00
   3813                    9955 __str_5:
   3813 32 20 3D 20 53 4B  9956 	.ascii "2 = SKILL 2/ONE PLAYER/CLASSIC"
        49 4C 4C 20 32 2F
        4F 4E 45 20 50 4C
        41 59 45 52 2F 43
        4C 41 53 53 49 43
   3831 00                 9957 	.db 0x00
   3832                    9958 __str_6:
   3832 33 20 3D 20 53 4B  9959 	.ascii "3 = SKILL 3/ONE PLAYER/CLASSIC"
        49 4C 4C 20 33 2F
        4F 4E 45 20 50 4C
        41 59 45 52 2F 43
        4C 41 53 53 49 43
   3850 00                 9960 	.db 0x00
   3851                    9961 __str_7:
   3851 34 20 3D 20 53 4B  9962 	.ascii "4 = SKILL 4/ONE PLAYER/CLASSIC"
        49 4C 4C 20 34 2F
        4F 4E 45 20 50 4C
        41 59 45 52 2F 43
        4C 41 53 53 49 43
   386F 00                 9963 	.db 0x00
   3870                    9964 __str_8:
   3870 35 20 3D 20 53 4B  9965 	.ascii "5 = SKILL 1/ONE PLAYER/EXTEND"
        49 4C 4C 20 31 2F
        4F 4E 45 20 50 4C
        41 59 45 52 2F 45
        58 54 45 4E 44
   388D 00                 9966 	.db 0x00
   388E                    9967 __str_9:
   388E 36 20 3D 20 53 4B  9968 	.ascii "6 = SKILL 2/ONE PLAYER/EXTEND"
        49 4C 4C 20 32 2F
        4F 4E 45 20 50 4C
        41 59 45 52 2F 45
        58 54 45 4E 44
   38AB 00                 9969 	.db 0x00
   38AC                    9970 __str_10:
   38AC 37 20 3D 20 53 4B  9971 	.ascii "7 = SKILL 3/ONE PLAYER/EXTEND"
        49 4C 4C 20 33 2F
        4F 4E 45 20 50 4C
        41 59 45 52 2F 45
        58 54 45 4E 44
   38C9 00                 9972 	.db 0x00
   38CA                    9973 __str_11:
   38CA 38 20 3D 20 53 4B  9974 	.ascii "8 = SKILL 4/ONE PLAYER/EXTEND"
        49 4C 4C 20 34 2F
        4F 4E 45 20 50 4C
        41 59 45 52 2F 45
        58 54 45 4E 44
   38E7 00                 9975 	.db 0x00
   38E8                    9976 __str_12:
   38E8 20 20 20 20 20 20  9977 	.ascii "                  "
        20 20 20 20 20 20
        20 20 20 20 20 20
   38FA 00                 9978 	.db 0x00
   38FB                    9979 __str_13:
   38FB 43 4F 4E 47 52 41  9980 	.ascii "CONGRATULATIONS !!"
        54 55 4C 41 54 49
        4F 4E 53 20 21 21
   390D 00                 9981 	.db 0x00
   390E                    9982 __str_14:
   390E 50 52 45 53 53 20  9983 	.ascii "PRESS FIRE FOR NEXT-LEVEL"
        46 49 52 45 20 46
        4F 52 20 4E 45 58
        54 2D 4C 45 56 45
        4C
   3927 00                 9984 	.db 0x00
   3928                    9985 __str_15:
   3928 47 41 4D 45 20 4F  9986 	.ascii "GAME OVER"
        56 45 52
   3931 00                 9987 	.db 0x00
   3932                    9988 __str_16:
   3932 46 49 4E 41 4C 20  9989 	.ascii "FINAL SCORE"
        53 43 4F 52 45
   393D 00                 9990 	.db 0x00
   393E                    9991 __str_17:
   393E 59 4F 55 27 56 45  9992 	.ascii "YOU'VE GOT HIGH SCORE !!"
        20 47 4F 54 20 48
        49 47 48 20 53 43
        4F 52 45 20 21 21
   3956 00                 9993 	.db 0x00
                           9994 ;main.c:3106: void nmi(void)
                           9995 ;	---------------------------------
                           9996 ; Function nmi
                           9997 ; ---------------------------------
   3957                    9998 _nmi_start::
   3957                    9999 _nmi:
                          10000 ;main.c:3109: if (activateNmi==OK)
   3957 AF                10001 	xor	a,a
   3958 21r35s01          10002 	ld	hl,#_activateNmi + 0
   395B B6                10003 	or	a,(hl)
   395C C2r01s3A          10004 	jp	NZ,00115$
                          10005 ;main.c:3111: if (autoDoorTimer!=0) autoDoorTimer--; // Le temps que dure une animation d'autoDoor (8 animation pour une fermeture, 8 pour une ouverture)
   395F FD 21r8Fs00       10006 	ld	iy,#_autoDoorTimer
   3963 FD 7E 00          10007 	ld	a,0 (iy)
   3966 FD B6 01          10008 	or	a,1 (iy)
   3969 28 07             10009 	jr	Z,00102$
   396B 2Ar8Fs00          10010 	ld	hl,(_autoDoorTimer)
   396E 2B                10011 	dec	hl
   396F 22r8Fs00          10012 	ld	(_autoDoorTimer),hl
   3972                   10013 00102$:
                          10014 ;main.c:3112: if (scatterModeTimer!=0) scatterModeTimer--;	
   3972 FD 21r8Ds00       10015 	ld	iy,#_scatterModeTimer
   3976 FD 7E 00          10016 	ld	a,0 (iy)
   3979 FD B6 01          10017 	or	a,1 (iy)
   397C 28 07             10018 	jr	Z,00104$
   397E 2Ar8Ds00          10019 	ld	hl,(_scatterModeTimer)
   3981 2B                10020 	dec	hl
   3982 22r8Ds00          10021 	ld	(_scatterModeTimer),hl
   3985                   10022 00104$:
                          10023 ;main.c:3114: if (animateSprite!=9) animateSprite++; else {animateSprite = 0;renderPlayerScore();}
   3985 FD 21r8Cs00       10024 	ld	iy,#_animateSprite
   3989 FD 7E 00          10025 	ld	a,0 (iy)
   398C D6 09             10026 	sub	a,#0x09
   398E 28 05             10027 	jr	Z,00106$
   3990 FD 34 00          10028 	inc	0 (iy)
   3993 18 08             10029 	jr	00107$
   3995                   10030 00106$:
   3995 21r8Cs00          10031 	ld	hl,#_animateSprite + 0
   3998 36 00             10032 	ld	(hl), #0x00
   399A CDrFFs04          10033 	call	_renderPlayerScore
   399D                   10034 00107$:
                          10035 ;main.c:3116: if (currentFlicker<2) currentFlicker++; else currentFlicker=1;
   399D FD 21r9As00       10036 	ld	iy,#_currentFlicker
   39A1 FD 7E 00          10037 	ld	a,0 (iy)
   39A4 D6 02             10038 	sub	a,#0x02
   39A6 30 05             10039 	jr	NC,00109$
   39A8 FD 34 00          10040 	inc	0 (iy)
   39AB 18 05             10041 	jr	00110$
   39AD                   10042 00109$:
   39AD 21r9As00          10043 	ld	hl,#_currentFlicker + 0
   39B0 36 01             10044 	ld	(hl), #0x01
   39B2                   10045 00110$:
                          10046 ;main.c:3117: if (currentFlicker==2) put_vram (0x1b00,sprites,128); 
   39B2 3Ar9As00          10047 	ld	a,(#_currentFlicker + 0)
   39B5 D6 02             10048 	sub	a,#0x02
   39B7 20 14             10049 	jr	NZ,00112$
   39B9 21 80 00          10050 	ld	hl,#0x0080
   39BC E5                10051 	push	hl
   39BD 21r00s00          10052 	ld	hl,#_sprites
   39C0 E5                10053 	push	hl
   39C1 21 00 1B          10054 	ld	hl,#0x1B00
   39C4 E5                10055 	push	hl
   39C5 CDr00s00          10056 	call	_put_vram
   39C8 F1                10057 	pop	af
   39C9 F1                10058 	pop	af
   39CA F1                10059 	pop	af
   39CB 18 34             10060 	jr	00115$
   39CD                   10061 00112$:
                          10062 ;main.c:3120: memcpyb(bsprites,sprites+16,64);
   39CD 21 40 00          10063 	ld	hl,#0x0040
   39D0 E5                10064 	push	hl
   39D1 21r40s00          10065 	ld	hl,#0x0040 + _sprites
   39D4 E5                10066 	push	hl
   39D5 21r9Bs00          10067 	ld	hl,#_bsprites
   39D8 E5                10068 	push	hl
   39D9 CDr00s00          10069 	call	_memcpyb
   39DC F1                10070 	pop	af
   39DD F1                10071 	pop	af
                          10072 ;main.c:3121: memcpyb(bsprites+16,sprites,64);
   39DE 21 40 00          10073 	ld	hl,#0x0040
   39E1 E3                10074 	ex	(sp),hl
   39E2 21r00s00          10075 	ld	hl,#_sprites
   39E5 E5                10076 	push	hl
   39E6 21rDBs00          10077 	ld	hl,#0x0040 + _bsprites
   39E9 E5                10078 	push	hl
   39EA CDr00s00          10079 	call	_memcpyb
   39ED F1                10080 	pop	af
   39EE F1                10081 	pop	af
                          10082 ;main.c:3122: put_vram (0x1b00,bsprites,128);				
   39EF 21 80 00          10083 	ld	hl,#0x0080
   39F2 E3                10084 	ex	(sp),hl
   39F3 21r9Bs00          10085 	ld	hl,#_bsprites
   39F6 E5                10086 	push	hl
   39F7 21 00 1B          10087 	ld	hl,#0x1B00
   39FA E5                10088 	push	hl
   39FB CDr00s00          10089 	call	_put_vram
   39FE F1                10090 	pop	af
   39FF F1                10091 	pop	af
   3A00 F1                10092 	pop	af
   3A01                   10093 00115$:
                          10094 ;main.c:3128: G_TickCount++;
   3A01 FD 21r38s01       10095 	ld	iy,#_G_TickCount
   3A05 FD 34 00          10096 	inc	0 (iy)
   3A08 20 03             10097 	jr	NZ,00127$
   3A0A FD 34 01          10098 	inc	1 (iy)
   3A0D                   10099 00127$:
                          10100 ;main.c:3129: G_count++;
   3A0D FD 21r3Cs01       10101 	ld	iy,#_G_count
   3A11 FD 34 00          10102 	inc	0 (iy)
   3A14 20 03             10103 	jr	NZ,00128$
   3A16 FD 34 01          10104 	inc	1 (iy)
   3A19                   10105 00128$:
                          10106 ;main.c:3132: sound_nmi();
   3A19 CDrB8s00          10107 	call	_sound_nmi
   3A1C C9                10108 	ret
   3A1D                   10109 _nmi_end::
                          10110 	.area _CODE
                          10111 	.area _CABS
